(dp0
S'687131'
p1
I2169
sS'35235'
p2
I1251
sS'314394'
p3
I356
sS'145751'
p4
I1718
sS'711904'
p5
I2472
sS'230731'
p6
I1414
sS'177795'
p7
I1436
sS'117679'
p8
I1210
sS'258395'
p9
I339
sS'114073'
p10
I1373
sS'99776'
p11
I659
sS'701880'
p12
I2532
sS'656385'
p13
I2456
sS'803026'
p14
I2663
sS'177223'
p15
I769
sS'177221'
p16
I768
sS'483506'
p17
I2513
sS'476316'
p18
I170
sS'439015'
p19
I479
sS'597947'
p20
I2603
sS'206014'
p21
I746
sS'625926'
p22
I2554
sS'74832'
p23
I30
sS'593504'
p24
I1993
sS'626550'
p25
I2558
sS'771895'
p26
I1818
sS'727105'
p27
I2056
sS'504761'
p28
I2505
sS'223325'
p29
I855
sS'189118'
p30
I1733
sS'523056'
p31
I1783
sS'4736'
p32
I892
sS'96155'
p33
I1188
sS'498287'
p34
I2294
sS'69390'
p35
I936
sS'425980'
p36
I1490
sS'69393'
p37
I937
sS'697684'
p38
I1882
sS'86211'
p39
I158
sS'25665'
p40
I1071
sS'372679'
p41
I1301
sS'140544'
p42
I144
sS'51604'
p43
I291
sS'60822'
p44
I825
sS'632500'
p45
I2497
sS'302466'
p46
I187
sS'686105'
p47
I2166
sS'570588'
p48
I2487
sS'302463'
p49
I186
sS'505365'
p50
I1893
sS'16496'
p51
I1513
sS'233833'
p52
I206
sS'233832'
p53
I205
sS'769207'
p54
I2263
sS'131563'
p55
I975
sS'423596'
p56
I1288
sS'645365'
p57
I2359
sS'758394'
p58
I1825
sS'715177'
p59
I2446
sS'270665'
p60
I49
sS'126972'
p61
I1425
sS'732657'
p62
I2687
sS'370556'
p63
I925
sS'326578'
p64
I967
sS'368922'
p65
I905
sS'633927'
p66
I2542
sS'318236'
p67
I1090
sS'758720'
p68
I2478
sS'17035'
p69
I1517
sS'200143'
p70
I1724
sS'302796'
p71
I188
sS'418766'
p72
I1027
sS'302798'
p73
I189
sS'349223'
p74
I1502
sS'578488'
p75
I2473
sS'617645'
p76
I2654
sS'188989'
p77
I1732
sS'60004'
p78
I1283
sS'567763'
p79
I2699
sS'39925'
p80
I312
sS'653576'
p81
I2398
sS'199233'
p82
I1720
sS'222497'
p83
I850
sS'286435'
p84
I991
sS'426980'
p85
I1495
sS'708120'
p86
I2395
sS'404318'
p87
I1709
sS'301894'
p88
I719
sS'270065'
p89
I43
sS'56079'
p90
I329
sS'558094'
p91
I2445
sS'349353'
p92
I1506
sS'694557'
p93
I2253
sS'773903'
p94
I1822
sS'452302'
p95
I1452
sS'70247'
p96
I603
sS'799017'
p97
I2073
sS'467155'
p98
I1124
sS'467154'
p99
I1123
sS'467153'
p100
I1122
sS'458804'
p101
I235
sS'408358'
p102
I1384
sS'315656'
p103
I362
sS'112311'
p104
I451
sS'246725'
p105
I121
sS'656281'
p106
I2455
sS'232461'
p107
I1421
sS'694145'
p108
I2602
sS'724606'
p109
I1900
sS'48367'
p110
I347
sS'315490'
p111
I360
sS'800646'
p112
I2077
sS'315499'
p113
I361
sS'804769'
p114
I1839
sS'254702'
p115
I253
sS'265828'
p116
I1017
sS'54777'
p117
I588
sS'483356'
p118
I2512
sS'399572'
p119
I1674
sS'38640'
p120
I687
sS'363385'
p121
I71
sS'466018'
p122
I1118
sS'206405'
p123
I748
sS'433534'
p124
I1323
sS'400527'
p125
I1035
sS'275980'
p126
I1072
sS'400522'
p127
I1034
sS'123961'
p128
I1339
sS'797760'
p129
I2214
sS'380076'
p130
I305
sS'450005'
p131
I219
sS'341257'
p132
I22
sS'252457'
p133
I511
sS'83291'
p134
I1059
sS'752175'
p135
I1979
sS'365628'
p136
I1307
sS'111052'
p137
I447
sS'470334'
p138
I284
sS'291284'
p139
I871
sS'224941'
p140
I1154
sS'671611'
p141
I2367
sS'701664'
p142
I2527
sS'587640'
p143
I2025
sS'724552'
p144
I1899
sS'242363'
p145
I1410
sS'94836'
p146
I789
sS'123491'
p147
I1336
sS'677530'
p148
I2283
sS'676008'
p149
I2274
sS'601327'
p150
I2673
sS'158804'
p151
I90
sS'282929'
p152
I521
sS'83614'
p153
I1233
sS'445666'
p154
I500
sS'68824'
p155
I1149
sS'707495'
p156
I2385
sS'242418'
p157
I1411
sS'461705'
p158
I739
sS'645691'
p159
I2193
sS'68829'
p160
I1150
sS'461701'
p161
I738
sS'39351'
p162
I202
sS'380857'
p163
I10
sS'451664'
p164
I225
sS'695069'
p165
I1770
sS'549791'
p166
I1937
sS'625068'
p167
I2135
sS'326379'
p168
I964
sS'39590'
p169
I309
sS'517757'
p170
I1873
sS'318944'
p171
I1097
sS'707617'
p172
I2390
sS'269128'
p173
I39
sS'414580'
p174
I315
sS'338031'
p175
I1001
sS'127397'
p176
I1426
sS'457846'
p177
I248
sS'131691'
p178
I977
sS'501052'
p179
I2412
sS'296775'
p180
I1229
sS'160409'
p181
I1705
sS'318837'
p182
I1095
sS'497039'
p183
I2291
sS'316890'
p184
I1571
sS'7453'
p185
I1477
sS'369724'
p186
I913
sS'272178'
p187
I1313
sS'177816'
p188
I1437
sS'258492'
p189
I340
sS'529668'
p190
I2066
sS'259775'
p191
I344
sS'174357'
p192
I1087
sS'464286'
p193
I138
sS'180172'
p194
I858
sS'697161'
p195
I1881
sS'261736'
p196
I632
sS'22477'
p197
I546
sS'22676'
p198
I548
sS'22677'
p199
I549
sS'337580'
p200
I1000
sS'446391'
p201
I893
sS'682399'
p202
I1948
sS'508366'
p203
I1844
sS'628868'
p204
I2624
sS'107897'
p205
I839
sS'729627'
p206
I2465
sS'304228'
p207
I197
sS'82587'
p208
I775
sS'189581'
p209
I1737
sS'220153'
p210
I591
sS'406104'
p211
I1712
sS'599067'
p212
I2606
sS'396668'
p213
I1108
sS'261026'
p214
I629
sS'469510'
p215
I283
sS'436440'
p216
I1175
sS'257332'
p217
I1678
sS'74820'
p218
I29
sS'366769'
p219
I1600
sS'300248'
p220
I530
sS'410359'
p221
I614
sS'489170'
p222
I2158
sS'101159'
p223
I654
sS'140551'
p224
I145
sS'558703'
p225
I1780
sS'235173'
p226
I209
sS'482332'
p227
I2509
sS'289792'
p228
I1402
sS'118155'
p229
I1213
sS'56132'
p230
I330
sS'802129'
p231
I2658
sS'570256'
p232
I2483
sS'686172'
p233
I2167
sS'378929'
p234
I300
sS'493532'
p235
I1792
sS'292073'
p236
I879
sS'706959'
p237
I2380
sS'200393'
p238
I1726
sS'222796'
p239
I854
sS'732224'
p240
I2686
sS'22704'
p241
I550
sS'118038'
p242
I1212
sS'94301'
p243
I787
sS'43996'
p244
I760
sS'740877'
p245
I2309
sS'46013'
p246
I671
sS'184610'
p247
I393
sS'562303'
p248
I2322
sS'723477'
p249
I2622
sS'401349'
p250
I1040
sS'515471'
p251
I2630
sS'230890'
p252
I1416
sS'368930'
p253
I906
sS'240480'
p254
I1596
sS'429365'
p255
I1260
sS'270123'
p256
I44
sS'105635'
p257
I1585
sS'472877'
p258
I1539
sS'613659'
p259
I1862
sS'39918'
p260
I311
sS'60018'
p261
I1284
sS'13286'
p262
I493
sS'802275'
p263
I2659
sS'810880'
p264
I2007
sS'645317'
p265
I2357
sS'113146'
p266
I1449
sS'645314'
p267
I2356
sS'247787'
p268
I129
sS'678271'
p269
I2104
sS'294558'
p270
I1553
sS'42339'
p271
I471
sS'805007'
p272
I2310
sS'316848'
p273
I1570
sS'97216'
p274
I1196
sS'349346'
p275
I1505
sS'6364'
p276
I1468
sS'452466'
p277
I1453
sS'322480'
p278
I433
sS'465961'
p279
I1116
sS'561124'
p280
I2100
sS'454161'
p281
I1461
sS'735236'
p282
I2562
sS'328740'
p283
I373
sS'800783'
p284
I2078
sS'402845'
p285
I1043
sS'547949'
p286
I2353
sS'358404'
p287
I643
sS'247095'
p288
I122
sS'321356'
p289
I426
sS'350983'
p290
I1262
sS'12227'
p291
I1659
sS'102894'
p292
I1366
sS'36837'
p293
I679
sS'568798'
p294
I2480
sS'484411'
p295
I2642
sS'754725'
p296
I1989
sS'285784'
p297
I986
sS'523091'
p298
I1784
sS'14657'
p299
I1441
sS'295513'
p300
I1224
sS'517585'
p301
I1869
sS'312380'
p302
I402
sS'295519'
p303
I1225
sS'419227'
p304
I1030
sS'463247'
p305
I134
sS'746154'
p306
I2188
sS'557036'
p307
I1804
sS'467239'
p308
I1129
sS'467236'
p309
I1127
sS'467237'
p310
I1128
sS'467235'
p311
I1126
sS'210345'
p312
I1266
sS'370584'
p313
I928
sS'716862'
p314
I2451
sS'45097'
p315
I763
sS'91816'
p316
I665
sS'83284'
p317
I1058
sS'132336'
p318
I938
sS'59481'
p319
I1281
sS'108583'
p320
I842
sS'198151'
p321
I1699
sS'335502'
p322
I1624
sS'421205'
p323
I1354
sS'596039'
p324
I2587
sS'438074'
p325
I1179
sS'41578'
p326
I457
sS'298644'
p327
I526
sS'87119'
p328
I1044
sS'197661'
p329
I1697
sS'79014'
p330
I168
sS'226661'
p331
I623
sS'136858'
p332
I1616
sS'620534'
p333
I2258
sS'704709'
p334
I2198
sS'788763'
p335
I1810
sS'715896'
p336
I2447
sS'109299'
p337
I844
sS'238268'
p338
I269
sS'471105'
p339
I285
sS'143188'
p340
I1345
sS'225791'
p341
I1157
sS'709192'
p342
I2342
sS'275247'
p343
I1203
sS'202045'
p344
I950
sS'28427'
p345
I1651
sS'793181'
p346
I2034
sS'212796'
p347
I648
sS'271700'
p348
I534
sS'528058'
p349
I2059
sS'591452'
p350
I2090
sS'602791'
p351
I2680
sS'291292'
p352
I872
sS'64670'
p353
I1530
sS'89108'
p354
I1050
sS'738641'
p355
I2302
sS'282226'
p356
I821
sS'228927'
p357
I1245
sS'379808'
p358
I304
sS'283084'
p359
I524
sS'373475'
p360
I1303
sS'283082'
p361
I523
sS'803310'
p362
I2665
sS'381400'
p363
I1162
sS'556048'
p364
I1801
sS'283644'
p365
I1329
sS'195832'
p366
I1692
sS'11025'
p367
I1655
sS'393775'
p368
I319
sS'790717'
p369
I2377
sS'574717'
p370
I1920
sS'303114'
p371
I193
sS'252795'
p372
I513
sS'574711'
p373
I1919
sS'590211'
p374
I2085
sS'771327'
p375
I2271
sS'263520'
p376
I1011
sS'88957'
p377
I1048
sS'449941'
p378
I218
sS'378266'
p379
I299
sS'733781'
p380
I2689
sS'676996'
p381
I2278
sS'257556'
p382
I1682
sS'789986'
p383
I2594
sS'273631'
p384
I4
sS'131462'
p385
I973
sS'527341'
p386
I2058
sS'493149'
p387
I1791
sS'776868'
p388
I2518
sS'489410'
p389
I2162
sS'729631'
p390
I2466
sS'89157'
p391
I1051
sS'807233'
p392
I2318
sS'644172'
p393
I2373
sS'593638'
p394
I1998
sS'394778'
p395
I321
sS'276040'
p396
I1073
sS'107844'
p397
I838
sS'429816'
p398
I1483
sS'423445'
p399
I1286
sS'19603'
p400
I409
sS'485683'
p401
I2648
sS'74036'
p402
I697
sS'231106'
p403
I1417
sS'173179'
p404
I1081
sS'605583'
p405
I2174
sS'369833'
p406
I915
sS'404515'
p407
I1710
sS'542242'
p408
I2186
sS'173171'
p409
I1080
sS'214435'
p410
I1644
sS'448543'
p411
I902
sS'689417'
p412
I1850
sS'309984'
p413
I230
sS'240634'
p414
I1597
sS'155506'
p415
I102
sS'25135'
p416
I1067
sS'186283'
p417
I1561
sS'56855'
p418
I336
sS'292063'
p419
I877
sS'376933'
p420
I277
sS'81286'
p421
I772
sS'292068'
p422
I878
sS'366175'
p423
I1599
sS'240243'
p424
I1594
sS'520911'
p425
I2522
sS'60247'
p426
I824
sS'640278'
p427
I1975
sS'222540'
p428
I851
sS'222542'
p429
I852
sS'712875'
p430
I2001
sS'562868'
p431
I2325
sS'227256'
p432
I423
sS'532116'
p433
I1826
sS'572547'
p434
I2152
sS'333165'
p435
I863
sS'515461'
p436
I2629
sS'494892'
p437
I1797
sS'592551'
p438
I2092
sS'623363'
p439
I2128
sS'489437'
p440
I2164
sS'20898'
p441
I540
sS'488125'
p442
I2420
sS'311934'
p443
I400
sS'488126'
p444
I2421
sS'13298'
p445
I494
sS'195226'
p446
I805
sS'305748'
p447
I152
sS'567453'
p448
I2695
sS'431194'
p449
I1488
sS'724837'
p450
I1904
sS'542011'
p451
I2182
sS'772611'
p452
I1820
sS'645361'
p453
I2358
sS'547563'
p454
I2352
sS'420865'
p455
I1352
sS'413497'
p456
I496
sS'797832'
p457
I2215
sS'686497'
p458
I2168
sS'456622'
p459
I245
sS'235343'
p460
I210
sS'310022'
p461
I231
sS'26047'
p462
I368
sS'574822'
p463
I1922
sS'753087'
p464
I1982
sS'773963'
p465
I1823
sS'168066'
p466
I741
sS'426766'
p467
I1494
sS'345774'
p468
I1222
sS'325103'
p469
I962
sS'802515'
p470
I2660
sS'521530'
p471
I2523
sS'705145'
p472
I2199
sS'242284'
p473
I1408
sS'195319'
p474
I807
sS'386475'
p475
I584
sS'251539'
p476
I506
sS'340415'
p477
I14
sS'280597'
p478
I1701
sS'199493'
p479
I1721
sS'251536'
p480
I505
sS'461984'
p481
I1685
sS'254722'
p482
I254
sS'719791'
p483
I1833
sS'285826'
p484
I987
sS'211844'
p485
I1269
sS'432930'
p486
I1320
sS'163565'
p487
I811
sS'604241'
p488
I2171
sS'190509'
p489
I1738
sS'399559'
p490
I1672
sS'99403'
p491
I658
sS'355871'
p492
I1241
sS'40898'
p493
I452
sS'40899'
p494
I453
sS'613718'
p495
I1863
sS'659598'
p496
I2500
sS'762581'
p497
I2547
sS'467229'
p498
I1125
sS'724714'
p499
I1901
sS'408572'
p500
I1393
sS'395036'
p501
I322
sS'610018'
p502
I1970
sS'132924'
p503
I939
sS'320367'
p504
I1107
sS'199562'
p505
I1722
sS'709483'
p506
I2344
sS'315740'
p507
I363
sS'621456'
p508
I2260
sS'18099'
p509
I1523
sS'708502'
p510
I2396
sS'419650'
p511
I1032
sS'804324'
p512
I2641
sS'419659'
p513
I1033
sS'112590'
p514
I831
sS'70918'
p515
I605
sS'58306'
p516
I1276
sS'496544'
p517
I2287
sS'217841'
p518
I161
sS'447304'
p519
I898
sS'379018'
p520
I301
sS'529514'
p521
I2064
sS'7057'
p522
I1474
sS'186637'
p523
I1563
sS'460839'
p524
I240
sS'699219'
p525
I1745
sS'100187'
p526
I652
sS'147214'
p527
I1630
sS'620526'
p528
I2257
sS'220187'
p529
I592
sS'478712'
p530
I2433
sS'283529'
p531
I1328
sS'751004'
p532
I2247
sS'382616'
p533
I69
sS'414619'
p534
I316
sS'756052'
p535
I2295
sS'790119'
p536
I2596
sS'743006'
p537
I1887
sS'462748'
p538
I132
sS'608150'
p539
I1963
sS'707631'
p540
I2391
sS'793207'
p541
I2035
sS'97918'
p542
I1198
sS'475061'
p543
I381
sS'559866'
p544
I2096
sS'701282'
p545
I2526
sS'444602'
p546
I474
sS'332553'
p547
I81
sS'779182'
p548
I2047
sS'394348'
p549
I320
sS'319104'
p550
I1101
sS'319106'
p551
I1102
sS'523265'
p552
I1790
sS'267188'
p553
I557
sS'96241'
p554
I1190
sS'457864'
p555
I249
sS'457868'
p556
I250
sS'121792'
p557
I731
sS'413018'
p558
I981
sS'206626'
p559
I749
sS'359912'
p560
I1661
sS'318859'
p561
I1096
sS'689843'
p562
I1854
sS'574706'
p563
I1918
sS'467251'
p564
I1133
sS'242434'
p565
I1412
sS'637332'
p566
I2336
sS'770130'
p567
I2267
sS'333702'
p568
I117
sS'319584'
p569
I1105
sS'616723'
p570
I2652
sS'461696'
p571
I737
sS'177580'
p572
I770
sS'377896'
p573
I297
sS'643347'
p574
I2371
sS'572393'
p575
I2150
sS'131410'
p576
I972
sS'21010'
p577
I541
sS'281015'
p578
I1702
sS'526287'
p579
I2637
sS'30966'
p580
I62
sS'439286'
p581
I480
sS'194843'
p582
I397
sS'705605'
p583
I2201
sS'413709'
p584
I497
sS'256935'
p585
I436
sS'770550'
p586
I2269
sS'593629'
p587
I1997
sS'221406'
p588
I600
sS'425330'
p589
I1297
sS'614499'
p590
I1867
sS'136556'
p591
I1614
sS'802060'
p592
I2657
sS'201083'
p593
I1727
sS'523260'
p594
I1789
sS'605293'
p595
I2173
sS'16598'
p596
I1514
sS'558854'
p597
I1782
sS'336116'
p598
I1627
sS'769775'
p599
I2266
sS'154595'
p600
I99
sS'576098'
p601
I2137
sS'401219'
p602
I1038
sS'660927'
p603
I2504
sS'370519'
p604
I917
sS'430487'
p605
I1485
sS'566330'
p606
I2693
sS'638045'
p607
I2338
sS'736118'
p608
I2566
sS'277250'
p609
I1450
sS'6763'
p610
I1471
sS'782860'
p611
I1754
sS'204001'
p612
I957
sS'497451'
p613
I2293
sS'396846'
p614
I1111
sS'97074'
p615
I1195
sS'25414'
p616
I1069
sS'69321'
p617
I934
sS'200373'
p618
I1725
sS'247658'
p619
I128
sS'262666'
p620
I637
sS'369874'
p621
I916
sS'505532'
p622
I1896
sS'505530'
p623
I1895
sS'726160'
p624
I2055
sS'4600'
p625
I891
sS'185730'
p626
I1558
sS'522619'
p627
I2028
sS'270639'
p628
I48
sS'477432'
p629
I172
sS'438720'
p630
I475
sS'480064'
p631
I2440
sS'316910'
p632
I1573
sS'793440'
p633
I2036
sS'593281'
p634
I1991
sS'494886'
p635
I1796
sS'201973'
p636
I948
sS'730863'
p637
I2469
sS'533902'
p638
I1828
sS'489428'
p639
I2163
sS'530190'
p640
I2069
sS'200114'
p641
I1723
sS'741439'
p642
I2041
sS'450278'
p643
I222
sS'41977'
p644
I460
sS'41975'
p645
I459
sS'683012'
p646
I1950
sS'333217'
p647
I864
sS'12110'
p648
I1658
sS'245905'
p649
I119
sS'563128'
p650
I2327
sS'304592'
p651
I198
sS'254463'
p652
I252
sS'74205'
p653
I698
sS'336308'
p654
I1628
sS'101460'
p655
I655
sS'220466'
p656
I597
sS'193635'
p657
I1434
sS'739226'
p658
I2306
sS'558326'
p659
I1779
sS'677093'
p660
I2280
sS'518473'
p661
I1875
sS'518472'
p662
I1874
sS'583971'
p663
I2237
sS'265567'
p664
I1016
sS'679032'
p665
I1750
sS'17778'
p666
I1522
sS'550139'
p667
I1938
sS'146060'
p668
I1535
sS'619834'
p669
I2254
sS'589547'
p670
I2081
sS'508715'
p671
I1772
sS'644514'
p672
I2374
sS'506943'
p673
I1842
sS'293630'
p674
I1548
sS'42772'
p675
I757
sS'20003'
p676
I413
sS'742186'
p677
I1884
sS'290904'
p678
I868
sS'605950'
p679
I2176
sS'122959'
p680
I1335
sS'122958'
p681
I1334
sS'58222'
p682
I1274
sS'625136'
p683
I2136
sS'45743'
p684
I669
sS'421823'
p685
I1357
sS'478623'
p686
I2430
sS'459432'
p687
I236
sS'609524'
p688
I1966
sS'478624'
p689
I2431
sS'601223'
p690
I2672
sS'450057'
p691
I221
sS'482990'
p692
I2511
sS'794318'
p693
I2037
sS'530171'
p694
I2068
sS'341284'
p695
I23
sS'195079'
p696
I802
sS'193947'
p697
I1435
sS'237262'
p698
I260
sS'559983'
p699
I2099
sS'71164'
p700
I606
sS'634232'
p701
I2543
sS'626321'
p702
I2555
sS'516949'
p703
I1868
sS'133245'
p704
I940
sS'453592'
p705
I1459
sS'191824'
p706
I1428
sS'7043'
p707
I1472
sS'496553'
p708
I2288
sS'291188'
p709
I869
sS'7048'
p710
I1473
sS'72887'
p711
I692
sS'306044'
p712
I154
sS'667481'
p713
I1763
sS'529502'
p714
I2063
sS'564485'
p715
I2333
sS'408418'
p716
I1385
sS'147881'
p717
I1634
sS'715992'
p718
I2448
sS'264569'
p719
I1014
sS'388461'
p720
I705
sS'78749'
p721
I167
sS'388282'
p722
I703
sS'31921'
p723
I1638
sS'399834'
p724
I1677
sS'315932'
p725
I365
sS'151770'
p726
I184
sS'381396'
p727
I1161
sS'503775'
p728
I2575
sS'60110'
p729
I1285
sS'548320'
p730
I2354
sS'429305'
p731
I1258
sS'437605'
p732
I1178
sS'804266'
p733
I2640
sS'18378'
p734
I404
sS'695016'
p735
I1769
sS'339223'
p736
I1008
sS'94976'
p737
I794
sS'94977'
p738
I795
sS'24378'
p739
I1064
sS'672118'
p740
I2110
sS'462172'
p741
I1687
sS'557220'
p742
I1806
sS'71760'
p743
I611
sS'432676'
p744
I1319
sS'237312'
p745
I262
sS'10937'
p746
I1654
sS'692586'
p747
I2598
sS'273721'
p748
I5
sS'606308'
p749
I2177
sS'136548'
p750
I1613
sS'212750'
p751
I647
sS'689652'
p752
I1852
sS'103293'
p753
I1367
sS'181948'
p754
I384
sS'50198'
p755
I351
sS'562914'
p756
I2326
sS'698971'
p757
I1742
sS'50465'
p758
I352
sS'302996'
p759
I191
sS'26613'
p760
I998
sS'111799'
p761
I448
sS'319022'
p762
I1100
sS'171043'
p763
I441
sS'319020'
p764
I1098
sS'318512'
p765
I1093
sS'677194'
p766
I2281
sS'155189'
p767
I101
sS'797139'
p768
I2211
sS'155182'
p769
I100
sS'461686'
p770
I736
sS'777462'
p771
I2519
sS'660277'
p772
I2501
sS'612427'
p773
I1947
sS'688670'
p774
I1848
sS'193319'
p775
I1432
sS'518916'
p776
I1877
sS'461510'
p777
I732
sS'241814'
p778
I626
sS'340242'
p779
I11
sS'27007'
p780
I1647
sS'445812'
p781
I502
sS'366973'
p782
I1601
sS'696288'
p783
I1880
sS'593617'
p784
I1996
sS'398470'
p785
I1671
sS'115794'
p786
I1377
sS'576267'
p787
I2138
sS'19627'
p788
I410
sS'218982'
p789
I166
sS'369502'
p790
I911
sS'358161'
p791
I642
sS'131538'
p792
I974
sS'311743'
p793
I399
sS'593097'
p794
I2633
sS'193405'
p795
I1433
sS'310476'
p796
I233
sS'544630'
p797
I1898
sS'354363'
p798
I1238
sS'286900'
p799
I486
sS'576466'
p800
I2140
sS'286904'
p801
I487
sS'286908'
p802
I488
sS'279544'
p803
I421
sS'594397'
p804
I2577
sS'424766'
p805
I1295
sS'16212'
p806
I1510
sS'277286'
p807
I1451
sS'322111'
p808
I431
sS'138722'
p809
I1620
sS'616210'
p810
I2650
sS'74473'
p811
I28
sS'460159'
p812
I237
sS'38968'
p813
I689
sS'117293'
p814
I1209
sS'572499'
p815
I2151
sS'93362'
p816
I779
sS'488328'
p817
I2423
sS'316908'
p818
I1572
sS'7426'
p819
I1476
sS'56788'
p820
I334
sS'488324'
p821
I2422
sS'468013'
p822
I1144
sS'48346'
p823
I346
sS'677084'
p824
I2279
sS'580401'
p825
I2475
sS'82370'
p826
I774
sS'98738'
p827
I1166
sS'465022'
p828
I140
sS'690421'
p829
I1856
sS'368963'
p830
I907
sS'253604'
p831
I515
sS'720911'
p832
I1834
sS'247423'
p833
I127
sS'17500'
p834
I1520
sS'489981'
p835
I2219
sS'261254'
p836
I630
sS'93968'
p837
I784
sS'583818'
p838
I2234
sS'16364'
p839
I1512
sS'795076'
p840
I2040
sS'650103'
p841
I2403
sS'496895'
p842
I2290
sS'438825'
p843
I478
sS'703193'
p844
I2535
sS'281583'
p845
I818
sS'525890'
p846
I2634
sS'26264'
p847
I994
sS'781496'
p848
I1751
sS'553838'
p849
I2614
sS'101479'
p850
I656
sS'669639'
p851
I2361
sS'153845'
p852
I98
sS'197417'
p853
I1696
sS'235818'
p854
I212
sS'371249'
p855
I930
sS'367020'
p856
I1603
sS'404139'
p857
I1707
sS'21273'
p858
I542
sS'305652'
p859
I151
sS'376597'
p860
I274
sS'146055'
p861
I1534
sS'186249'
p862
I1560
sS'408085'
p863
I1382
sS'367110'
p864
I1604
sS'803287'
p865
I2664
sS'53959'
p866
I1480
sS'48324'
p867
I345
sS'473710'
p868
I1544
sS'48101'
p869
I677
sS'202987'
p870
I953
sS'421812'
p871
I1356
sS'752356'
p872
I1980
sS'706020'
p873
I2204
sS'329551'
p874
I374
sS'38601'
p875
I686
sS'637240'
p876
I2335
sS'501510'
p877
I2414
sS'315766'
p878
I364
sS'316797'
p879
I1567
sS'285376'
p880
I985
sS'739047'
p881
I2304
sS'474196'
p882
I376
sS'357020'
p883
I640
sS'462314'
p884
I1691
sS'395123'
p885
I324
sS'274380'
p886
I7
sS'18415'
p887
I405
sS'716698'
p888
I2450
sS'71375'
p889
I609
sS'274387'
p890
I8
sS'714342'
p891
I2003
sS'453581'
p892
I1458
sS'12900'
p893
I491
sS'429270'
p894
I1257
sS'701731'
p895
I2530
sS'186376'
p896
I1562
sS'58494'
p897
I1277
sS'143732'
p898
I1348
sS'343281'
p899
I1215
sS'408422'
p900
I1386
sS'24026'
p901
I1063
sS'408424'
p902
I1388
sS'788752'
p903
I1809
sS'771041'
p904
I2270
sS'29726'
p905
I58
sS'291888'
p906
I875
sS'529530'
p907
I2065
sS'644755'
p908
I2375
sS'76757'
p909
I36
sS'487495'
p910
I2417
sS'333559'
p911
I111
sS'529207'
p912
I2062
sS'650938'
p913
I2404
sS'709325'
p914
I2343
sS'707616'
p915
I2389
sS'707615'
p916
I2388
sS'707614'
p917
I2387
sS'147416'
p918
I1632
sS'549759'
p919
I1936
sS'243453'
p920
I571
sS'275278'
p921
I1204
sS'83369'
p922
I1060
sS'712773'
p923
I2000
sS'549751'
p924
I1935
sS'429318'
p925
I1259
sS'301891'
p926
I718
sS'92423'
p927
I668
sS'15135'
p928
I1443
sS'365261'
p929
I1714
sS'584472'
p930
I2239
sS'789409'
p931
I1816
sS'271592'
p932
I532
sS'242211'
p933
I1407
sS'368368'
p934
I1608
sS'170102'
p935
I440
sS'737257'
p936
I2567
sS'220873'
p937
I598
sS'620476'
p938
I2256
sS'788913'
p939
I1811
sS'385736'
p940
I582
sS'662561'
p941
I2428
sS'395764'
p942
I326
sS'591423'
p943
I2089
sS'711532'
p944
I2471
sS'237308'
p945
I261
sS'676264'
p946
I2276
sS'30011'
p947
I59
sS'584160'
p948
I2238
sS'782669'
p949
I1753
sS'282747'
p950
I822
sS'212721'
p951
I646
sS'242072'
p952
I1405
sS'609832'
p953
I1969
sS'413031'
p954
I982
sS'574722'
p955
I1921
sS'672227'
p956
I2111
sS'291221'
p957
I870
sS'717481'
p958
I2453
sS'588028'
p959
I2026
sS'594897'
p960
I2580
sS'230049'
p961
I1249
sS'594726'
p962
I2578
sS'129568'
p963
I968
sS'279400'
p964
I419
sS'196344'
p965
I1694
sS'591702'
p966
I2091
sS'541584'
p967
I2108
sS'645898'
p968
I2196
sS'174002'
p969
I1084
sS'174000'
p970
I1083
sS'145708'
p971
I1717
sS'563962'
p972
I2330
sS'435056'
p973
I1327
sS'72694'
p974
I691
sS'661984'
p975
I2570
sS'89452'
p976
I1053
sS'273192'
p977
I2
sS'365318'
p978
I1715
sS'322138'
p979
I432
sS'574613'
p980
I1917
sS'340272'
p981
I12
sS'707478'
p982
I2383
sS'764264'
p983
I2550
sS'303013'
p984
I192
sS'352369'
p985
I1263
sS'183757'
p986
I389
sS'150565'
p987
I180
sS'302380'
p988
I185
sS'335006'
p989
I1623
sS'593607'
p990
I1994
sS'595709'
p991
I2584
sS'318478'
p992
I1092
sS'180220'
p993
I859
sS'574172'
p994
I1766
sS'276230'
p995
I1077
sS'227861'
p996
I1242
sS'370534'
p997
I918
sS'93484'
p998
I781
sS'738503'
p999
I2301
sS'81548'
p1000
I773
sS'477529'
p1001
I173
sS'737338'
p1002
I2568
sS'806370'
p1003
I2314
sS'566056'
p1004
I2691
sS'4163'
p1005
I889
sS'566053'
p1006
I2690
sS'506663'
p1007
I1841
sS'26452'
p1008
I997
sS'566059'
p1009
I2692
sS'449848'
p1010
I217
sS'599150'
p1011
I2607
sS'289128'
p1012
I1398
sS'96751'
p1013
I1194
sS'616671'
p1014
I2651
sS'377182'
p1015
I280
sS'303832'
p1016
I195
sS'150010'
p1017
I178
sS'409369'
p1018
I1396
sS'783758'
p1019
I1757
sS'757279'
p1020
I2298
sS'438746'
p1021
I476
sS'183970'
p1022
I391
sS'259094'
p1023
I342
sS'586496'
p1024
I2020
sS'551516'
p1025
I1941
sS'289281'
p1026
I1399
sS'631777'
p1027
I2495
sS'631774'
p1028
I2494
sS'332935'
p1029
I862
sS'220244'
p1030
I594
sS'95484'
p1031
I800
sS'188431'
p1032
I1730
sS'51148'
p1033
I354
sS'262667'
p1034
I638
sS'520467'
p1035
I2521
sS'104348'
p1036
I1582
sS'624409'
p1037
I2133
sS'230854'
p1038
I1415
sS'95500'
p1039
I801
sS'807603'
p1040
I1927
sS'293498'
p1041
I1546
sS'57135'
p1042
I338
sS'668262'
p1043
I1764
sS'799916'
p1044
I2075
sS'185632'
p1045
I1557
sS'380719'
p1046
I9
sS'116710'
p1047
I1206
sS'106276'
p1048
I1590
sS'420690'
p1049
I1351
sS'148285'
p1050
I1635
sS'754509'
p1051
I1988
sS'26270'
p1052
I995
sS'207751'
p1053
I751
sS'27928'
p1054
I1650
sS'657663'
p1055
I2458
sS'293147'
p1056
I1545
sS'237648'
p1057
I264
sS'489840'
p1058
I2216
sS'396316'
p1059
I552
sS'741707'
p1060
I2045
sS'309773'
p1061
I229
sS'25185'
p1062
I1068
sS'582793'
p1063
I2230
sS'349192'
p1064
I1500
sS'301543'
p1065
I715
sS'365896'
p1066
I1312
sS'365892'
p1067
I1311
sS'10758'
p1068
I1653
sS'374848'
p1069
I271
sS'809755'
p1070
I1934
sS'105364'
p1071
I1584
sS'203113'
p1072
I954
sS'621687'
p1073
I2261
sS'677225'
p1074
I2282
sS'481628'
p1075
I2507
sS'270185'
p1076
I45
sS'806856'
p1077
I2317
sS'688840'
p1078
I1849
sS'658351'
p1079
I2461
sS'295247'
p1080
I1555
sS'83422'
p1081
I1062
sS'247163'
p1082
I123
sS'508824'
p1083
I1773
sS'491139'
p1084
I2014
sS'445340'
p1085
I383
sS'808373'
p1086
I1930
sS'134114'
p1087
I946
sS'249488'
p1088
I722
sS'341023'
p1089
I17
sS'807557'
p1090
I2320
sS'62742'
p1091
I829
sS'27855'
p1092
I1649
sS'48007'
p1093
I676
sS'68651'
p1094
I1145
sS'395175'
p1095
I325
sS'37231'
p1096
I682
sS'408439'
p1097
I1390
sS'609497'
p1098
I1965
sS'248976'
p1099
I721
sS'299144'
p1100
I528
sS'433457'
p1101
I1322
sS'445697'
p1102
I501
sS'13135'
p1103
I492
sS'769531'
p1104
I2265
sS'569888'
p1105
I2482
sS'572906'
p1106
I2153
sS'447472'
p1107
I899
sS'83377'
p1108
I1061
sS'242919'
p1109
I570
sS'434139'
p1110
I1324
sS'136789'
p1111
I1615
sS'604690'
p1112
I2172
sS'115126'
p1113
I1375
sS'105984'
p1114
I1588
sS'364674'
p1115
I75
sS'360498'
p1116
I1664
sS'728346'
p1117
I2462
sS'326385'
p1118
I965
sS'613999'
p1119
I1864
sS'271582'
p1120
I531
sS'651792'
p1121
I2407
sS'352773'
p1122
I1264
sS'208626'
p1123
I756
sS'30378'
p1124
I61
sS'333635'
p1125
I112
sS'410502'
p1126
I615
sS'499513'
p1127
I2409
sS'29394'
p1128
I55
sS'115057'
p1129
I1374
sS'709009'
p1130
I2103
sS'111005'
p1131
I446
sS'540398'
p1132
I1960
sS'443726'
p1133
I473
sS'709522'
p1134
I2346
sS'282774'
p1135
I823
sS'789381'
p1136
I1815
sS'342736'
p1137
I27
sS'59353'
p1138
I1280
sS'447059'
p1139
I895
sS'598154'
p1140
I2604
sS'108528'
p1141
I841
sS'722641'
p1142
I2620
sS'630410'
p1143
I2491
sS'95080'
p1144
I798
sS'133865'
p1145
I943
sS'151359'
p1146
I183
sS'706046'
p1147
I2205
sS'751050'
p1148
I2248
sS'771360'
p1149
I2272
sS'640226'
p1150
I1974
sS'408434'
p1151
I1389
sS'708994'
p1152
I2102
sS'783636'
p1153
I1756
sS'430584'
p1154
I1486
sS'697865'
p1155
I1883
sS'680597'
p1156
I1799
sS'144392'
p1157
I1349
sS'692560'
p1158
I2597
sS'385071'
p1159
I581
sS'375593'
p1160
I272
sS'77254'
p1161
I38
sS'242489'
p1162
I1413
sS'257130'
p1163
I437
sS'482260'
p1164
I2508
sS'526216'
p1165
I2635
sS'492584'
p1166
I2018
sS'257139'
p1167
I438
sS'643289'
p1168
I2370
sS'318407'
p1169
I1091
sS'629462'
p1170
I2126
sS'245066'
p1171
I576
sS'411536'
p1172
I620
sS'651967'
p1173
I2408
sS'373433'
p1174
I1302
sS'276228'
p1175
I1076
sS'213068'
p1176
I651
sS'19488'
p1177
I408
sS'22513'
p1178
I547
sS'503917'
p1179
I2576
sS'292202'
p1180
I880
sS'705925'
p1181
I2203
sS'478654'
p1182
I2432
sS'592942'
p1183
I2631
sS'310416'
p1184
I232
sS'96282'
p1185
I1191
sS'626464'
p1186
I2557
sS'645370'
p1187
I2360
sS'96289'
p1188
I1192
sS'750659'
p1189
I2245
sS'750658'
p1190
I2244
sS'241904'
p1191
I627
sS'548342'
p1192
I2355
sS'286250'
p1193
I990
sS'423533'
p1194
I1287
sS'762235'
p1195
I2546
sS'316927'
p1196
I1574
sS'383199'
p1197
I70
sS'73315'
p1198
I693
sS'522669'
p1199
I2029
sS'631762'
p1200
I2493
sS'382225'
p1201
I64
sS'779949'
p1202
I2049
sS'287672'
p1203
I204
sS'559456'
p1204
I2093
sS'12673'
p1205
I1021
sS'105983'
p1206
I1587
sS'19649'
p1207
I411
sS'323389'
p1208
I435
sS'7805'
p1209
I1180
sS'677933'
p1210
I2284
sS'686056'
p1211
I2165
sS'741178'
p1212
I2591
sS'39942'
p1213
I313
sS'140811'
p1214
I146
sS'713977'
p1215
I2002
sS'297491'
p1216
I1231
sS'92239'
p1217
I667
sS'244403'
p1218
I574
sS'98085'
p1219
I1199
sS'195261'
p1220
I806
sS'98087'
p1221
I1200
sS'222433'
p1222
I849
sS'613582'
p1223
I1861
sS'316813'
p1224
I1568
sS'401400'
p1225
I1041
sS'602444'
p1226
I2678
sS'259131'
p1227
I343
sS'426466'
p1228
I1492
sS'349442'
p1229
I1507
sS'473355'
p1230
I1542
sS'24911'
p1231
I1066
sS'595850'
p1232
I2585
sS'295920'
p1233
I1226
sS'52372'
p1234
I292
sS'128562'
p1235
I1236
sS'791141'
p1236
I2378
sS'654784'
p1237
I2400
sS'662581'
p1238
I2429
sS'38830'
p1239
I688
sS'9490'
p1240
I1185
sS'301578'
p1241
I716
sS'9496'
p1242
I1186
sS'657785'
p1243
I2459
sS'410086'
p1244
I613
sS'36752'
p1245
I678
sS'139087'
p1246
I142
sS'668475'
p1247
I1765
sS'163148'
p1248
I809
sS'293581'
p1249
I1547
sS'320016'
p1250
I1106
sS'418257'
p1251
I1025
sS'678315'
p1252
I2105
sS'522806'
p1253
I2033
sS'204319'
p1254
I958
sS'112643'
p1255
I832
sS'467260'
p1256
I1139
sS'504821'
p1257
I2506
sS'711337'
p1258
I2470
sS'563273'
p1259
I2329
sS'772436'
p1260
I1819
sS'403462'
p1261
I1706
sS'247172'
p1262
I124
sS'264331'
p1263
I1013
sS'546603'
p1264
I2348
sS'808812'
p1265
I1931
sS'41983'
p1266
I462
sS'146385'
p1267
I1537
sS'41980'
p1268
I461
sS'41987'
p1269
I466
sS'41986'
p1270
I465
sS'41985'
p1271
I464
sS'41984'
p1272
I463
sS'271826'
p1273
I536
sS'41989'
p1274
I468
sS'41988'
p1275
I467
sS'341035'
p1276
I18
sS'138130'
p1277
I1618
sS'102021'
p1278
I1361
sS'479166'
p1279
I2436
sS'176979'
p1280
I766
sS'44558'
p1281
I762
sS'291937'
p1282
I876
sS'59166'
p1283
I1279
sS'62101'
p1284
I827
sS'610133'
p1285
I1973
sS'683222'
p1286
I1951
sS'270999'
p1287
I53
sS'207020'
p1288
I750
sS'399685'
p1289
I1675
sS'780515'
p1290
I2052
sS'367795'
p1291
I1605
sS'367799'
p1292
I1606
sS'645606'
p1293
I2192
sS'408446'
p1294
I1391
sS'68662'
p1295
I1146
sS'641161'
p1296
I1978
sS'384139'
p1297
I577
sS'11812'
p1298
I1656
sS'714678'
p1299
I2004
sS'490865'
p1300
I2013
sS'529008'
p1301
I2061
sS'172380'
p1302
I1079
sS'482691'
p1303
I2510
sS'657816'
p1304
I2460
sS'707673'
p1305
I2392
sS'205999'
p1306
I743
sS'303903'
p1307
I196
sS'202096'
p1308
I951
sS'803925'
p1309
I2667
sS'614231'
p1310
I1866
sS'269892'
p1311
I42
sS'426475'
p1312
I1493
sS'112797'
p1313
I836
sS'541968'
p1314
I2181
sS'327865'
p1315
I371
sS'365246'
p1316
I1713
sS'687218'
p1317
I2170
sS'493966'
p1318
I1793
sS'559823'
p1319
I2095
sS'660491'
p1320
I2503
sS'771794'
p1321
I1817
sS'724469'
p1322
I2541
sS'724468'
p1323
I2540
sS'757308'
p1324
I2299
sS'238038'
p1325
I267
sS'707541'
p1326
I2386
sS'385860'
p1327
I583
sS'788934'
p1328
I1812
sS'143040'
p1329
I1344
sS'756307'
p1330
I2297
sS'229711'
p1331
I1247
sS'136517'
p1332
I1612
sS'556253'
p1333
I1802
sS'586745'
p1334
I2022
sS'150925'
p1335
I182
sS'95090'
p1336
I799
sS'161767'
p1337
I1317
sS'207755'
p1338
I752
sS'764105'
p1339
I2549
sS'207757'
p1340
I754
sS'207756'
p1341
I753
sS'559958'
p1342
I2098
sS'804651'
p1343
I1836
sS'332667'
p1344
I83
sS'175007'
p1345
I1088
sS'83189'
p1346
I1055
sS'157942'
p1347
I88
sS'284719'
p1348
I1331
sS'382588'
p1349
I68
sS'511120'
p1350
I1776
sS'407879'
p1351
I1381
sS'302922'
p1352
I190
sS'88478'
p1353
I1046
sS'93710'
p1354
I783
sS'705640'
p1355
I2202
sS'150811'
p1356
I181
sS'511668'
p1357
I1778
sS'50541'
p1358
I353
sS'750791'
p1359
I2246
sS'355424'
p1360
I1240
sS'133928'
p1361
I944
sS'162175'
p1362
I712
sS'767912'
p1363
I1915
sS'651425'
p1364
I2406
sS'429113'
p1365
I1256
sS'767911'
p1366
I1914
sS'731847'
p1367
I2685
sS'479808'
p1368
I2439
sS'393658'
p1369
I318
sS'88870'
p1370
I1047
sS'469154'
p1371
I282
sS'187033'
p1372
I1565
sS'187032'
p1373
I1564
sS'563241'
p1374
I2328
sS'540381'
p1375
I1959
sS'425119'
p1376
I1296
sS'500233'
p1377
I2410
sS'740096'
p1378
I2307
sS'468681'
p1379
I281
sS'503120'
p1380
I2574
sS'712228'
p1381
I1999
sS'370552'
p1382
I921
sS'370553'
p1383
I922
sS'370551'
p1384
I920
sS'314943'
p1385
I359
sS'370557'
p1386
I926
sS'370554'
p1387
I923
sS'370555'
p1388
I924
sS'107921'
p1389
I840
sS'15202'
p1390
I1445
sS'308408'
p1391
I226
sS'533142'
p1392
I1827
sS'292232'
p1393
I881
sS'724883'
p1394
I1905
sS'763831'
p1395
I2548
sS'474811'
p1396
I379
sS'56628'
p1397
I332
sS'460166'
p1398
I238
sS'56624'
p1399
I331
sS'130769'
p1400
I970
sS'266365'
p1401
I554
sS'505260'
p1402
I1891
sS'389702'
p1403
I711
sS'98767'
p1404
I1168
sS'748549'
p1405
I2241
sS'51168'
p1406
I355
sS'458701'
p1407
I234
sS'657317'
p1408
I2457
sS'255969'
p1409
I257
sS'431085'
p1410
I1487
sS'276215'
p1411
I1075
sS'57943'
p1412
I1271
sS'670205'
p1413
I2362
sS'276212'
p1414
I1074
sS'530301'
p1415
I2070
sS'56754'
p1416
I333
sS'570667'
p1417
I2488
sS'63637'
p1418
I1525
sS'428718'
p1419
I215
sS'135191'
p1420
I947
sS'576360'
p1421
I2139
sS'517638'
p1422
I1871
sS'776106'
p1423
I2517
sS'739092'
p1424
I2305
sS'431229'
p1425
I1489
sS'744507'
p1426
I1890
sS'186130'
p1427
I1559
sS'162319'
p1428
I714
sS'484744'
p1429
I2645
sS'465107'
p1430
I141
sS'270903'
p1431
I52
sS'11985'
p1432
I1657
sS'328256'
p1433
I372
sS'408322'
p1434
I1383
sS'293761'
p1435
I1550
sS'634897'
p1436
I2544
sS'510228'
p1437
I1774
sS'64359'
p1438
I1529
sS'474078'
p1439
I375
sS'98184'
p1440
I1201
sS'589584'
p1441
I2082
sS'595885'
p1442
I2586
sS'542130'
p1443
I2184
sS'445214'
p1444
I382
sS'410675'
p1445
I617
sS'17427'
p1446
I1518
sS'496227'
p1447
I2285
sS'767594'
p1448
I1912
sS'358666'
p1449
I645
sS'341132'
p1450
I19
sS'436335'
p1451
I1174
sS'117241'
p1452
I1208
sS'404210'
p1453
I1708
sS'205304'
p1454
I959
sS'490828'
p1455
I2012
sS'4952'
p1456
I1463
sS'806854'
p1457
I2316
sS'703629'
p1458
I2536
sS'609561'
p1459
I1967
sS'317445'
p1460
I565
sS'101936'
p1461
I1360
sS'467258'
p1462
I1138
sS'373803'
p1463
I1306
sS'271819'
p1464
I535
sS'467256'
p1465
I1136
sS'467257'
p1466
I1137
sS'467250'
p1467
I1132
sS'356824'
p1468
I639
sS'467252'
p1469
I1134
sS'467253'
p1470
I1135
sS'112259'
p1471
I450
sS'372544'
p1472
I1300
sS'376659'
p1473
I275
sS'779044'
p1474
I2046
sS'163681'
p1475
I812
sS'112255'
p1476
I449
sS'367016'
p1477
I1602
sS'741706'
p1478
I2044
sS'626785'
p1479
I2559
sS'764809'
p1480
I2552
sS'363557'
p1481
I73
sS'773424'
p1482
I1821
sS'41990'
p1483
I469
sS'41991'
p1484
I470
sS'683572'
p1485
I1952
sS'363950'
p1486
I74
sS'663754'
p1487
I1845
sS'808989'
p1488
I1932
sS'41517'
p1489
I456
sS'395081'
p1490
I323
sS'480649'
p1491
I2444
sS'564139'
p1492
I2331
sS'255798'
p1493
I256
sS'196778'
p1494
I1695
sS'466235'
p1495
I1119
sS'800018'
p1496
I2076
sS'10240'
p1497
I1652
sS'113811'
p1498
I1372
sS'133591'
p1499
I942
sS'41191'
p1500
I454
sS'68670'
p1501
I1147
sS'388428'
p1502
I704
sS'651136'
p1503
I2405
sS'421860'
p1504
I1358
sS'387772'
p1505
I701
sS'156959'
p1506
I86
sS'419137'
p1507
I1028
sS'607746'
p1508
I2179
sS'607744'
p1509
I2178
sS'164066'
p1510
I813
sS'87662'
p1511
I1045
sS'691293'
p1512
I1860
sS'3068'
p1513
I883
sS'804721'
p1514
I1837
sS'219707'
p1515
I590
sS'94937'
p1516
I793
sS'718876'
p1517
I1832
sS'83994'
p1518
I1234
sS'400845'
p1519
I1037
sS'718014'
p1520
I2454
sS'217097'
p1521
I160
sS'237657'
p1522
I265
sS'721714'
p1523
I2618
sS'237911'
p1524
I266
sS'700845'
p1525
I1747
sS'691182'
p1526
I1859
sS'298887'
p1527
I527
sS'212398'
p1528
I1478
sS'91705'
p1529
I664
sS'453539'
p1530
I1457
sS'564398'
p1531
I2332
sS'207766'
p1532
I755
sS'456016'
p1533
I241
sS'706668'
p1534
I2207
sS'271656'
p1535
I533
sS'699042'
p1536
I1743
sS'234495'
p1537
I208
sS'395882'
p1538
I327
sS'229659'
p1539
I1246
sS'507107'
p1540
I1843
sS'334203'
p1541
I1621
sS'463531'
p1542
I137
sS'725304'
p1543
I2054
sS'83190'
p1544
I1056
sS'347092'
p1545
I1575
sS'229835'
p1546
I1248
sS'415911'
p1547
I317
sS'289639'
p1548
I1401
sS'17435'
p1549
I1519
sS'542136'
p1550
I2185
sS'289632'
p1551
I1400
sS'31195'
p1552
I1637
sS'365328'
p1553
I1716
sS'535884'
p1554
I2225
sS'535880'
p1555
I2224
sS'435794'
p1556
I1171
sS'330212'
p1557
I76
sS'465483'
p1558
I1113
sS'6478'
p1559
I1470
sS'705497'
p1560
I2200
sS'767908'
p1561
I1913
sS'758792'
p1562
I2008
sS'474711'
p1563
I377
sS'110733'
p1564
I445
sS'110731'
p1565
I444
sS'219520'
p1566
I589
sS'770506'
p1567
I2268
sS'430145'
p1568
I1484
sS'73575'
p1569
I696
sS'73574'
p1570
I695
sS'741691'
p1571
I2043
sS'96390'
p1572
I1193
sS'804083'
p1573
I2639
sS'370548'
p1574
I919
sS'231166'
p1575
I1418
sS'189268'
p1576
I1735
sS'189267'
p1577
I1734
sS'674086'
p1578
I2118
sS'93141'
p1579
I777
sS'93142'
p1580
I778
sS'381646'
p1581
I63
sS'398323'
p1582
I1670
sS'747757'
p1583
I2191
sS'417080'
p1584
I1023
sS'684224'
p1585
I1953
sS'769073'
p1586
I2262
sS'397369'
p1587
I1669
sS'766223'
p1588
I1907
sS'807920'
p1589
I1928
sS'32096'
p1590
I1639
sS'242331'
p1591
I1409
sS'158303'
p1592
I89
sS'73378'
p1593
I694
sS'320920'
p1594
I424
sS'460754'
p1595
I239
sS'209529'
p1596
I1265
sS'616046'
p1597
I2649
sS'389288'
p1598
I709
sS'320929'
p1599
I425
sS'623490'
p1600
I2129
sS'586669'
p1601
I2021
sS'441665'
p1602
I485
sS'511121'
p1603
I1777
sS'12659'
p1604
I1020
sS'12658'
p1605
I1019
sS'98777'
p1606
I1169
sS'701683'
p1607
I2528
sS'350074'
p1608
I108
sS'626402'
p1609
I2556
sS'794513'
p1610
I2038
sS'19847'
p1611
I412
sS'741118'
p1612
I2590
sS'489253'
p1613
I2160
sS'52408'
p1614
I293
sS'98513'
p1615
I1163
sS'744471'
p1616
I1889
sS'304678'
p1617
I199
sS'797078'
p1618
I2210
sS'780664'
p1619
I2053
sS'182525'
p1620
I388
sS'500249'
p1621
I2411
sS'214230'
p1622
I1643
sS'120347'
p1623
I730
sS'757652'
p1624
I2300
sS'742955'
p1625
I1886
sS'640366'
p1626
I1976
sS'85237'
p1627
I156
sS'99916'
p1628
I661
sS'270752'
p1629
I51
sS'372490'
p1630
I1299
sS'602918'
p1631
I2683
sS'558778'
p1632
I1781
sS'253267'
p1633
I514
sS'456489'
p1634
I243
sS'115450'
p1635
I1376
sS'69114'
p1636
I931
sS'309747'
p1637
I228
sS'46373'
p1638
I672
sS'349332'
p1639
I1503
sS'349333'
p1640
I1504
sS'399798'
p1641
I1676
sS'201814'
p1642
I1729
sS'99352'
p1643
I657
sS'396363'
p1644
I553
sS'153088'
p1645
I95
sS'218127'
p1646
I164
sS'182232'
p1647
I386
sS'286526'
p1648
I992
sS'571672'
p1649
I2148
sS'801570'
p1650
I2655
sS'41857'
p1651
I458
sS'658947'
p1652
I2498
sS'345482'
p1653
I1220
sS'480104'
p1654
I2441
sS'376825'
p1655
I276
sS'627097'
p1656
I2560
sS'349027'
p1657
I1580
sS'97218'
p1658
I1197
sS'205310'
p1659
I960
sS'54485'
p1660
I585
sS'210803'
p1661
I1267
sS'642651'
p1662
I2368
sS'467249'
p1663
I1131
sS'396832'
p1664
I1110
sS'37466'
p1665
I684
sS'172273'
p1666
I1078
sS'467245'
p1667
I1130
sS'672866'
p1668
I2114
sS'466349'
p1669
I1120
sS'56960'
p1670
I337
sS'381395'
p1671
I1160
sS'636134'
p1672
I2334
sS'362017'
p1673
I1668
sS'90772'
p1674
I663
sS'36397'
p1675
I1253
sS'345066'
p1676
I1219
sS'317543'
p1677
I566
sS'478720'
p1678
I2434
sS'278359'
p1679
I1342
sS'317548'
p1680
I567
sS'301762'
p1681
I717
sS'313258'
p1682
I403
sS'463320'
p1683
I135
sS'62714'
p1684
I828
sS'781558'
p1685
I1752
sS'610114'
p1686
I1972
sS'462268'
p1687
I1690
sS'452499'
p1688
I1454
sS'480257'
p1689
I2442
sS'264264'
p1690
I1012
sS'342377'
p1691
I25
sS'540943'
p1692
I1961
sS'546993'
p1693
I2351
sS'701798'
p1694
I2531
sS'102315'
p1695
I1363
sS'18526'
p1696
I406
sS'798575'
p1697
I2072
sS'743064'
p1698
I1888
sS'15178'
p1699
I1444
sS'694357'
p1700
I2249
sS'785331'
p1701
I2671
sS'272684'
p1702
I0
sS'225126'
p1703
I1155
sS'695513'
p1704
I1879
sS'105974'
p1705
I1586
sS'54064'
p1706
I1481
sS'609597'
p1707
I1968
sS'601444'
p1708
I2674
sS'475289'
p1709
I538
sS'670956'
p1710
I2364
sS'160106'
p1711
I1704
sS'801652'
p1712
I2656
sS'252787'
p1713
I512
sS'654617'
p1714
I2399
sS'464991'
p1715
I139
sS'447204'
p1716
I897
sS'18781'
p1717
I407
sS'268122'
p1718
I559
sS'759786'
p1719
I2009
sS'109357'
p1720
I845
sS'629941'
p1721
I2489
sS'330354'
p1722
I78
sS'784894'
p1723
I2670
sS'89074'
p1724
I1049
sS'447022'
p1725
I894
sS'340836'
p1726
I16
sS'242208'
p1727
I1406
sS'122322'
p1728
I1333
sS'106836'
p1729
I1593
sS'95078'
p1730
I797
sS'407107'
p1731
I1379
sS'15683'
p1732
I1509
sS'161744'
p1733
I1316
sS'520458'
p1734
I2520
sS'161742'
p1735
I1315
sS'369126'
p1736
I908
sS'780014'
p1737
I2051
sS'375727'
p1738
I273
sS'467800'
p1739
I1143
sS'156123'
p1740
I84
sS'749914'
p1741
I2243
sS'648228'
p1742
I2341
sS'664714'
p1743
I1846
sS'225819'
p1744
I1158
sS'577322'
p1745
I2144
sS'146004'
p1746
I1533
sS'475635'
p1747
I288
sS'334234'
p1748
I1622
sS'674177'
p1749
I2119
sS'434302'
p1750
I1326
sS'6448'
p1751
I1469
sS'580508'
p1752
I2476
sS'691087'
p1753
I1858
sS'338528'
p1754
I1003
sS'553401'
p1755
I2611
sS'474725'
p1756
I378
sS'423945'
p1757
I1290
sS'222280'
p1758
I848
sS'89893'
p1759
I1054
sS'66705'
p1760
I865
sS'228171'
p1761
I1244
sS'630496'
p1762
I2492
sS'140001'
p1763
I143
sS'126796'
p1764
I1424
sS'26414'
p1765
I996
sS'136242'
p1766
I1609
sS'262534'
p1767
I636
sS'318696'
p1768
I1094
sS'457355'
p1769
I247
sS'241937'
p1770
I628
sS'727382'
p1771
I2057
sS'266980'
p1772
I556
sS'629326'
p1773
I2123
sS'592948'
p1774
I2632
sS'206138'
p1775
I747
sS'462671'
p1776
I131
sS'417098'
p1777
I1024
sS'553535'
p1778
I2612
sS'424085'
p1779
I1292
sS'436828'
p1780
I1176
sS'55551'
p1781
I328
sS'807935'
p1782
I1929
sS'577146'
p1783
I2141
sS'577147'
p1784
I2142
sS'624883'
p1785
I2134
sS'331901'
p1786
I80
sS'707224'
p1787
I2381
sS'637432'
p1788
I2337
sS'779978'
p1789
I2050
sS'461584'
p1790
I734
sS'574889'
p1791
I1925
sS'461582'
p1792
I733
sS'573302'
p1793
I2155
sS'477542'
p1794
I174
sS'350006'
p1795
I107
sS'98740'
p1796
I1167
sS'474906'
p1797
I380
sS'802707'
p1798
I2661
sS'69292'
p1799
I933
sS'120241'
p1800
I729
sS'424669'
p1801
I1294
sS'448758'
p1802
I903
sS'716408'
p1803
I2449
sS'522748'
p1804
I2031
sS'286609'
p1805
I993
sS'297194'
p1806
I1230
sS'409437'
p1807
I1397
sS'684869'
p1808
I1955
sS'382300'
p1809
I65
sS'490021'
p1810
I2220
sS'285835'
p1811
I988
sS'467625'
p1812
I1142
sS'116842'
p1813
I1207
sS'602675'
p1814
I2679
sS'369599'
p1815
I912
sS'124831'
p1816
I1340
sS'104412'
p1817
I1583
sS'14976'
p1818
I1442
sS'428602'
p1819
I213
sS'786911'
p1820
I1807
sS'274061'
p1821
I6
sS'408871'
p1822
I1395
sS'779716'
p1823
I2048
sS'43765'
p1824
I759
sS'505332'
p1825
I1892
sS'292585'
p1826
I882
sS'722614'
p1827
I2619
sS'377120'
p1828
I279
sS'754437'
p1829
I1987
sS'138219'
p1830
I1619
sS'556948'
p1831
I1803
sS'700884'
p1832
I1748
sS'98527'
p1833
I1164
sS'522691'
p1834
I2030
sS'810805'
p1835
I2006
sS'309130'
p1836
I227
sS'250879'
p1837
I726
sS'679765'
p1838
I1798
sS'602879'
p1839
I2682
sS'602878'
p1840
I2681
sS'629410'
p1841
I2124
sS'20152'
p1842
I414
sS'20157'
p1843
I415
sS'348108'
p1844
I1578
sS'767483'
p1845
I1911
sS'546654'
p1846
I2349
sS'480525'
p1847
I2443
sS'107544'
p1848
I837
sS'257605'
p1849
I1683
sS'195098'
p1850
I804
sS'379561'
p1851
I303
sS'436005'
p1852
I1173
sS'244619'
p1853
I575
sS'281378'
p1854
I1703
sS'71326'
p1855
I608
sS'62963'
p1856
I830
sS'4595'
p1857
I890
sS'70529'
p1858
I604
sS'542085'
p1859
I2183
sS'317553'
p1860
I568
sS'319021'
p1861
I1099
sS'747233'
p1862
I2190
sS'303203'
p1863
I194
sS'54615'
p1864
I586
sS'574319'
p1865
I1767
sS'408476'
p1866
I1392
sS'57951'
p1867
I1273
sS'57950'
p1868
I1272
sS'390767'
p1869
I92
sS'371764'
p1870
I1298
sS'223419'
p1871
I857
sS'347413'
p1872
I1576
sS'3547'
p1873
I885
sS'530066'
p1874
I2067
sS'496324'
p1875
I2286
sS'788276'
p1876
I1808
sS'456813'
p1877
I246
sS'345671'
p1878
I1221
sS'210837'
p1879
I1268
sS'534774'
p1880
I2221
sS'41444'
p1881
I455
sS'338926'
p1882
I1007
sS'418687'
p1883
I1026
sS'583064'
p1884
I2232
sS'421627'
p1885
I1355
sS'30229'
p1886
I60
sS'112741'
p1887
I833
sS'380224'
p1888
I306
sS'284071'
p1889
I1330
sS'175836'
p1890
I764
sS'537262'
p1891
I2227
sS'222279'
p1892
I847
sS'790715'
p1893
I2376
sS'251922'
p1894
I509
sS'453600'
p1895
I1460
sS'437464'
p1896
I1177
sS'343786'
p1897
I1216
sS'257552'
p1898
I1681
sS'427714'
p1899
I1498
sS'724430'
p1900
I2539
sS'749618'
p1901
I2242
sS'475299'
p1902
I539
sS'571874'
p1903
I2149
sS'756171'
p1904
I2296
sS'341206'
p1905
I20
sS'237573'
p1906
I263
sS'333671'
p1907
I116
sS'83200'
p1908
I1057
sS'76451'
p1909
I35
sS'759792'
p1910
I2010
sS'327585'
p1911
I369
sS'662269'
p1912
I2425
sS'434267'
p1913
I1325
sS'8229'
p1914
I1182
sS'226915'
p1915
I625
sS'717432'
p1916
I2452
sS'673866'
p1917
I2117
sS'360404'
p1918
I1663
sS'316816'
p1919
I1569
sS'174051'
p1920
I1085
sS'338733'
p1921
I1005
sS'129310'
p1922
I622
sS'86486'
p1923
I159
sS'445888'
p1924
I504
sS'95042'
p1925
I796
sS'141650'
p1926
I147
sS'662460'
p1927
I2427
sS'388991'
p1928
I706
sS'142452'
p1929
I149
sS'94887'
p1930
I792
sS'289985'
p1931
I1403
sS'595686'
p1932
I2583
sS'47715'
p1933
I675
sS'789907'
p1934
I2592
sS'523180'
p1935
I1788
sS'136412'
p1936
I1611
sS'682991'
p1937
I1949
sS'15345'
p1938
I1446
sS'638504'
p1939
I2340
sS'601642'
p1940
I2675
sS'411515'
p1941
I619
sS'475600'
p1942
I287
sS'92121'
p1943
I666
sS'235493'
p1944
I211
sS'447493'
p1945
I900
sS'279035'
p1946
I203
sS'541280'
p1947
I1962
sS'774088'
p1948
I1824
sS'526696'
p1949
I2638
sS'667371'
p1950
I1761
sS'764379'
p1951
I2551
sS'47626'
p1952
I674
sS'667372'
p1953
I1762
sS'370563'
p1954
I927
sS'287035'
p1955
I489
sS'228167'
p1956
I1243
sS'262524'
p1957
I635
sS'314913'
p1958
I358
sS'613122'
p1959
I2525
sS'389110'
p1960
I708
sS'435684'
p1961
I1170
sS'93613'
p1962
I782
sS'519045'
p1963
I1878
sS'491251'
p1964
I2016
sS'272325'
p1965
I1314
sS'284857'
p1966
I1332
sS'707350'
p1967
I2382
sS'193260'
p1968
I1431
sS'279639'
p1969
I422
sS'96239'
p1970
I1189
sS'126326'
p1971
I1423
sS'24447'
p1972
I1065
sS'429099'
p1973
I1255
sS'279325'
p1974
I418
sS'189423'
p1975
I1736
sS'65614'
p1976
I1532
sS'515283'
p1977
I2628
sS'183925'
p1978
I390
sS'104085'
p1979
I1368
sS'287105'
p1980
I490
sS'361463'
p1981
I1667
sS'318176'
p1982
I1089
sS'562159'
p1983
I2321
sS'623678'
p1984
I2131
sS'461594'
p1985
I735
sS'523162'
p1986
I1786
sS'109019'
p1987
I843
sS'370962'
p1988
I929
sS'708971'
p1989
I2101
sS'603957'
p1990
I2684
sS'127434'
p1991
I1427
sS'449430'
p1992
I216
sS'349214'
p1993
I1501
sS'645897'
p1994
I2195
sS'497357'
p1995
I2292
sS'262099'
p1996
I634
sS'3603'
p1997
I886
sS'740994'
p1998
I2588
sS'353939'
p1999
I1237
sS'94083'
p2000
I785
sS'593614'
p2001
I1995
sS'75588'
p2002
I34
sS'396690'
p2003
I1109
sS'377003'
p2004
I278
sS'800866'
p2005
I2079
sS'735471'
p2006
I2563
sS'745617'
p2007
I2187
sS'128524'
p2008
I1235
sS'382319'
p2009
I66
sS'177191'
p2010
I767
sS'368859'
p2011
I904
sS'7934'
p2012
I1181
sS'463191'
p2013
I133
sS'675471'
p2014
I2273
sS'153515'
p2015
I96
sS'106319'
p2016
I1591
sS'671497'
p2017
I2366
sS'379400'
p2018
I302
sS'13346'
p2019
I495
sS'632272'
p2020
I2496
sS'595004'
p2021
I2581
sS'185552'
p2022
I1556
sS'118263'
p2023
I1214
sS'113003'
p2024
I1448
sS'489972'
p2025
I2218
sS'387361'
p2026
I699
sS'218107'
p2027
I163
sS'753313'
p2028
I1983
sS'324492'
p2029
I961
sS'250087'
p2030
I723
sS'195550'
p2031
I808
sS'85369'
p2032
I157
sS'797581'
p2033
I2213
sS'250644'
p2034
I725
sS'43654'
p2035
I758
sS'594813'
p2036
I2579
sS'349777'
p2037
I104
sS'689817'
p2038
I1853
sS'707909'
p2039
I2394
sS'270242'
p2040
I46
sS'195083'
p2041
I803
sS'729614'
p2042
I2464
sS'741643'
p2043
I2042
sS'427010'
p2044
I1496
sS'767321'
p2045
I1910
sS'243678'
p2046
I572
sS'709509'
p2047
I2345
sS'583897'
p2048
I2236
sS'546895'
p2049
I2350
sS'3427'
p2050
I884
sS'485465'
p2051
I2647
sS'198679'
p2052
I1700
sS'274838'
p2053
I1202
sS'589629'
p2054
I2083
sS'387565'
p2055
I700
sS'340763'
p2056
I15
sS'254416'
p2057
I251
sS'484530'
p2058
I2643
sS'799320'
p2059
I2074
sS'269298'
p2060
I40
sS'369324'
p2061
I910
sS'574844'
p2062
I1923
sS'53640'
p2063
I296
sS'223400'
p2064
I856
sS'256302'
p2065
I258
sS'462249'
p2066
I1689
sS'790017'
p2067
I2595
sS'390715'
p2068
I91
sS'247226'
p2069
I125
sS'21762'
p2070
I544
sS'117742'
p2071
I1211
sS'68831'
p2072
I1151
sS'698691'
p2073
I1740
sS'39898'
p2074
I310
sS'373802'
p2075
I1305
sS'317361'
p2076
I563
sS'796549'
p2077
I2208
sS'317364'
p2078
I564
sS'408837'
p2079
I1394
sS'293706'
p2080
I1549
sS'243728'
p2081
I573
sS'369216'
p2082
I909
sS'102113'
p2083
I1362
sS'380250'
p2084
I308
sS'562557'
p2085
I2323
sS'156213'
p2086
I85
sS'59657'
p2087
I1282
sS'335659'
p2088
I1625
sS'48747'
p2089
I349
sS'71865'
p2090
I612
sS'689576'
p2091
I1851
sS'282873'
p2092
I517
sS'5309'
p2093
I1465
sS'724425'
p2094
I2538
sS'144901'
p2095
I1350
sS'432551'
p2096
I1318
sS'341214'
p2097
I21
sS'584775'
p2098
I2240
sS'147344'
p2099
I1631
sS'718828'
p2100
I1831
sS'701687'
p2101
I2529
sS'567506'
p2102
I2696
sS'718827'
p2103
I1830
sS'316420'
p2104
I366
sS'83011'
p2105
I776
sS'147018'
p2106
I1629
sS'620760'
p2107
I2259
sS'384687'
p2108
I580
sS'123746'
p2109
I1337
sS'695157'
p2110
I1771
sS'788995'
p2111
I1813
sS'168428'
p2112
I742
sS'316741'
p2113
I1566
sS'317582'
p2114
I569
sS'483651'
p2115
I2514
sS'543742'
p2116
I1897
sS'268567'
p2117
I561
sS'94878'
p2118
I791
sS'37139'
p2119
I681
sS'238109'
p2120
I268
sS'68887'
p2121
I1152
sS'289993'
p2122
I1404
sS'671306'
p2123
I2365
sS'330241'
p2124
I77
sS'667099'
p2125
I1759
sS'640635'
p2126
I1977
sS'325886'
p2127
I963
sS'693805'
p2128
I2600
sS'699094'
p2129
I1744
sS'360503'
p2130
I1665
sS'620161'
p2131
I2255
sS'421168'
p2132
I1353
sS'192286'
p2133
I1429
sS'583592'
p2134
I2233
sS'257499'
p2135
I1679
sS'214181'
p2136
I1642
sS'359918'
p2137
I1662
sS'438807'
p2138
I477
sS'706659'
p2139
I2206
sS'503012'
p2140
I2572
sS'338651'
p2141
I1004
sS'517604'
p2142
I1870
sS'74994'
p2143
I31
sS'574879'
p2144
I1924
sS'477587'
p2145
I175
sS'173188'
p2146
I1082
sS'570373'
p2147
I2485
sS'273205'
p2148
I3
sS'445887'
p2149
I503
sS'373486'
p2150
I1304
sS'580671'
p2151
I2477
sS'662293'
p2152
I2426
sS'803943'
p2153
I2668
sS'412575'
p2154
I621
sS'201640'
p2155
I1728
sS'25900'
p2156
I367
sS'593387'
p2157
I1992
sS'61700'
p2158
I826
sS'613066'
p2159
I2524
sS'649419'
p2160
I2401
sS'266412'
p2161
I555
sS'608898'
p2162
I1964
sS'332649'
p2163
I82
sS'119704'
p2164
I727
sS'783424'
p2165
I1755
sS'456581'
p2166
I244
sS'635124'
p2167
I2545
sS'65287'
p2168
I1531
sS'441631'
p2169
I484
sS'63640'
p2170
I1526
sS'299494'
p2171
I529
sS'130835'
p2172
I971
sS'194823'
p2173
I396
sS'645881'
p2174
I2194
sS'202978'
p2175
I952
sS'192689'
p2176
I1430
sS'501144'
p2177
I2413
sS'105985'
p2178
I1589
sS'550427'
p2179
I1940
sS'559721'
p2180
I2094
sS'505682'
p2181
I1840
sS'610055'
p2182
I1971
sS'649565'
p2183
I2402
sS'674264'
p2184
I2120
sS'104188'
p2185
I1369
sS'104189'
p2186
I1370
sS'535625'
p2187
I2223
sS'166369'
p2188
I740
sS'546265'
p2189
I2347
sS'503083'
p2190
I2573
sS'412795'
p2191
I979
sS'678455'
p2192
I2106
sS'807405'
p2193
I2319
sS'281978'
p2194
I820
sS'220374'
p2195
I596
sS'93402'
p2196
I780
sS'465144'
p2197
I1112
sS'281974'
p2198
I819
sS'694061'
p2199
I2601
sS'643126'
p2200
I2369
sS'473177'
p2201
I1540
sS'26903'
p2202
I1646
sS'407728'
p2203
I1380
sS'753433'
p2204
I1984
sS'602032'
p2205
I2677
sS'715033'
p2206
I2005
sS'518547'
p2207
I1876
sS'75483'
p2208
I33
sS'358621'
p2209
I644
sS'571643'
p2210
I2147
sS'349785'
p2211
I105
sS'270493'
p2212
I47
sS'253851'
p2213
I516
sS'21805'
p2214
I545
sS'488356'
p2215
I2424
sS'326544'
p2216
I966
sS'494110'
p2217
I1794
sS'49732'
p2218
I350
sS'322757'
p2219
I434
sS'456280'
p2220
I242
sS'222621'
p2221
I853
sS'489919'
p2222
I2217
sS'221934'
p2223
I602
sS'305151'
p2224
I150
sS'574925'
p2225
I1926
sS'333471'
p2226
I109
sS'27226'
p2227
I1648
sS'212854'
p2228
I649
sS'36474'
p2229
I1254
sS'146351'
p2230
I1536
sS'537842'
p2231
I2228
sS'794550'
p2232
I2039
sS'554526'
p2233
I2616
sS'149175'
p2234
I1636
sS'141792'
p2235
I148
sS'412796'
p2236
I980
sS'102477'
p2237
I1364
sS'805937'
p2238
I2312
sS'805931'
p2239
I2311
sS'476688'
p2240
I171
sS'275794'
p2241
I1205
sS'586962'
p2242
I2023
sS'478961'
p2243
I2435
sS'312057'
p2244
I401
sS'528420'
p2245
I2060
sS'574321'
p2246
I1768
sS'742273'
p2247
I1885
sS'628768'
p2248
I2623
sS'45836'
p2249
I670
sS'177902'
p2250
I1438
sS'487424'
p2251
I2416
sS'616955'
p2252
I2653
sS'335714'
p2253
I1626
sS'690671'
p2254
I1857
sS'203420'
p2255
I955
sS'752981'
p2256
I1981
sS'484592'
p2257
I2644
sS'365818'
p2258
I1309
sS'285051'
p2259
I983
sS'327834'
p2260
I370
sS'796956'
p2261
I2209
sS'804446'
p2262
I1835
sS'311432'
p2263
I398
sS'112984'
p2264
I1447
sS'740642'
p2265
I2308
sS'251903'
p2266
I508
sS'58248'
p2267
I1275
sS'44183'
p2268
I761
sS'410566'
p2269
I616
sS'333650'
p2270
I115
sS'282889'
p2271
I518
sS'314484'
p2272
I357
sS'368192'
p2273
I1607
sS'601713'
p2274
I2676
sS'255269'
p2275
I255
sS'769425'
p2276
I2264
sS'577217'
p2277
I2143
sS'666292'
p2278
I1758
sS'110727'
p2279
I443
sS'37838'
p2280
I685
sS'559922'
p2281
I2097
sS'765931'
p2282
I1906
sS'797559'
p2283
I2212
sS'20226'
p2284
I416
sS'557195'
p2285
I1805
sS'271457'
p2286
I54
sS'562678'
p2287
I2324
sS'466016'
p2288
I1117
sS'68899'
p2289
I1153
sS'690004'
p2290
I1855
sS'164717'
p2291
I814
sS'212064'
p2292
I1270
sS'157446'
p2293
I87
sS'99798'
p2294
I660
sS'388021'
p2295
I702
sS'147661'
p2296
I1633
sS'143309'
p2297
I1347
sS'319575'
p2298
I1104
sS'590253'
p2299
I2086
sS'567559'
p2300
I2697
sS'678924'
p2301
I1749
sS'479314'
p2302
I2438
sS'702235'
p2303
I2533
sS'100439'
p2304
I653
sS'202001'
p2305
I949
sS'305813'
p2306
I153
sS'775393'
p2307
I2515
sS'517725'
p2308
I1872
sS'429366'
p2309
I1261
sS'184091'
p2310
I392
sS'540113'
p2311
I1957
sS'585721'
p2312
I2019
sS'143017'
p2313
I1343
sS'667359'
p2314
I1760
sS'338040'
p2315
I1002
sS'523092'
p2316
I1785
sS'261941'
p2317
I633
sS'401281'
p2318
I1039
sS'684670'
p2319
I1954
sS'132026'
p2320
I978
sS'5892'
p2321
I1466
sS'296703'
p2322
I1228
sS'268824'
p2323
I562
sS'344312'
p2324
I1218
sS'673100'
p2325
I2115
sS'673107'
p2326
I2116
sS'322039'
p2327
I430
sS'574590'
p2328
I1916
sS'492181'
p2329
I2017
sS'537122'
p2330
I2226
sS'231724'
p2331
I1420
sS'588129'
p2332
I2027
sS'106594'
p2333
I1592
sS'136249'
p2334
I1610
sS'789921'
p2335
I2593
sS'110608'
p2336
I442
sS'355233'
p2337
I1239
sS'245202'
p2338
I118
sS'51399'
p2339
I290
sS'182490'
p2340
I387
sS'612243'
p2341
I1946
sS'571640'
p2342
I2146
sS'590479'
p2343
I2087
sS'402388'
p2344
I1042
sS'486770'
p2345
I2415
sS'761077'
p2346
I2011
sS'389005'
p2347
I707
sS'378003'
p2348
I298
sS'462532'
p2349
I130
sS'526252'
p2350
I2636
sS'197831'
p2351
I1698
sS'553676'
p2352
I2613
sS'629280'
p2353
I2122
sS'593254'
p2354
I1990
sS'489166'
p2355
I2157
sS'29487'
p2356
I56
sS'281507'
p2357
I816
sS'94263'
p2358
I786
sS'537941'
p2359
I2229
sS'496797'
p2360
I2289
sS'150159'
p2361
I179
sS'735720'
p2362
I2564
sS'16613'
p2363
I1515
sS'605622'
p2364
I2175
sS'301004'
p2365
I1581
sS'522774'
p2366
I2032
sS'13627'
p2367
I1439
sS'295940'
p2368
I1227
sS'535618'
p2369
I2222
sS'800886'
p2370
I2080
sS'629173'
p2371
I2121
sS'149310'
p2372
I177
sS'382334'
p2373
I67
sS'404558'
p2374
I1711
sS'645983'
p2375
I2197
sS'120077'
p2376
I728
sS'220369'
p2377
I595
sS'153626'
p2378
I97
sS'552657'
p2379
I1944
sS'424107'
p2380
I1293
sS'550233'
p2381
I1939
sS'423735'
p2382
I1289
sS'741062'
p2383
I2589
sS'246511'
p2384
I120
sS'36264'
p2385
I1252
sS'25463'
p2386
I1070
sS'56814'
p2387
I335
sS'176131'
p2388
I765
sS'348481'
p2389
I1579
sS'660370'
p2390
I2502
sS'702516'
p2391
I2534
sS'90515'
p2392
I662
sS'81084'
p2393
I771
sS'665226'
p2394
I1847
sS'241113'
p2395
I1598
sS'348002'
p2396
I1577
sS'491239'
p2397
I2015
sS'124977'
p2398
I1341
sS'732675'
p2399
I2688
sS'77194'
p2400
I37
sS'676016'
p2401
I2275
sS'614085'
p2402
I1865
sS'5148'
p2403
I1464
sS'203746'
p2404
I956
sS'63827'
p2405
I1527
sS'629424'
p2406
I2125
sS'190599'
p2407
I1739
sS'510361'
p2408
I1775
sS'406958'
p2409
I1378
sS'540044'
p2410
I1956
sS'349683'
p2411
I103
sS'321414'
p2412
I427
sS'271845'
p2413
I537
sS'583877'
p2414
I2235
sS'75389'
p2415
I32
sS'806632'
p2416
I2315
sS'6316'
p2417
I1467
sS'231397'
p2418
I1419
sS'152806'
p2419
I94
sS'390953'
p2420
I93
sS'473464'
p2421
I1543
sS'295169'
p2422
I1554
sS'71647'
p2423
I610
sS'629519'
p2424
I2127
sS'676603'
p2425
I2277
sS'551914'
p2426
I1943
sS'608065'
p2427
I2180
sS'17701'
p2428
I1521
sS'467370'
p2429
I1140
sS'467377'
p2430
I1141
sS'570349'
p2431
I2484
sS'37023'
p2432
I680
sS'22859'
p2433
I551
sS'661691'
p2434
I2569
sS'365822'
p2435
I1310
sS'363436'
p2436
I72
sS'102605'
p2437
I1365
sS'349190'
p2438
I1499
sS'251579'
p2439
I507
sS'804741'
p2440
I1838
sS'169669'
p2441
I439
sS'432972'
p2442
I1321
sS'269388'
p2443
I41
sS'14606'
p2444
I1440
sS'471799'
p2445
I1538
sS'463470'
p2446
I136
sS'333643'
p2447
I113
sS'349997'
p2448
I106
sS'445511'
p2449
I498
sS'293862'
p2450
I1551
sS'33139'
p2451
I1641
sS'282895'
p2452
I520
sS'453401'
p2453
I1456
sS'226741'
p2454
I624
sS'333648'
p2455
I114
sS'282893'
p2456
I519
sS'450025'
p2457
I220
sS'333489'
p2458
I110
sS'724750'
p2459
I1902
sS'68715'
p2460
I1148
sS'359889'
p2461
I1660
sS'33134'
p2462
I1640
sS'137240'
p2463
I1617
sS'798496'
p2464
I2071
sS'248851'
p2465
I720
sS'694405'
p2466
I2250
sS'54158'
p2467
I1482
sS'384567'
p2468
I579
sS'194759'
p2469
I394
sS'15645'
p2470
I1508
sS'123766'
p2471
I1338
sS'718775'
p2472
I1829
sS'487746'
p2473
I2418
sS'20239'
p2474
I417
sS'766955'
p2475
I1909
sS'789000'
p2476
I1814
sS'699256'
p2477
I1746
sS'419167'
p2478
I1029
sS'112796'
p2479
I835
sS'445606'
p2480
I499
sS'94856'
p2481
I790
sS'164765'
p2482
I815
sS'440814'
p2483
I481
sS'540278'
p2484
I1958
sS'681769'
p2485
I1800
sS'724319'
p2486
I2537
sS'523174'
p2487
I1787
sS'729449'
p2488
I2463
sS'339466'
p2489
I1009
sS'494184'
p2490
I1795
sS'541475'
p2491
I2107
sS'345996'
p2492
I1223
sS'39334'
p2493
I201
sS'130526'
p2494
I969
sS'234150'
p2495
I207
sS'283078'
p2496
I522
sS'258549'
p2497
I341
sS'34576'
p2498
I1250
sS'672440'
p2499
I2112
sS'238412'
p2500
I270
sS'256578'
p2501
I259
sS'340340'
p2502
I13
sS'638221'
p2503
I2339
sS'109607'
p2504
I846
sS'573273'
p2505
I2154
sS'453307'
p2506
I1455
sS'541650'
p2507
I2109
sS'447591'
p2508
I901
sS'145784'
p2509
I1719
sS'322020'
p2510
I429
sS'479271'
p2511
I2437
sS'225671'
p2512
I1156
sS'279467'
p2513
I420
sS'180359'
p2514
I861
sS'424049'
p2515
I1291
sS'659117'
p2516
I2499
sS'261714'
p2517
I631
sS'766571'
p2518
I1908
sS'358025'
p2519
I641
sS'730647'
p2520
I2468
sS'51383'
p2521
I289
sS'344078'
p2522
I1217
sS'52879'
p2523
I295
sS'414165'
p2524
I314
sS'273171'
p2525
I1
sS'196262'
p2526
I1693
sS'4016'
p2527
I888
sS'360708'
p2528
I1666
sS'39111'
p2529
I200
sS'595562'
p2530
I2582
sS'194807'
p2531
I395
sS'206003'
p2532
I744
sS'624396'
p2533
I2132
sS'206007'
p2534
I745
sS'3759'
p2535
I887
sS'215212'
p2536
I1645
sS'281519'
p2537
I817
sS'802747'
p2538
I2662
sS'730222'
p2539
I2467
sS'754276'
p2540
I1986
sS'42447'
p2541
I472
sS'12778'
p2542
I1022
sS'96147'
p2543
I1187
sS'515099'
p2544
I2627
sS'337037'
p2545
I999
sS'149301'
p2546
I176
sS'286083'
p2547
I989
sS'162196'
p2548
I713
sS'240390'
p2549
I1595
sS'98655'
p2550
I1165
sS'389498'
p2551
I710
sS'670356'
p2552
I2363
sS'505374'
p2553
I1894
sS'428648'
p2554
I214
sS'69360'
p2555
I935
sS'221820'
p2556
I601
sS'489371'
p2557
I2161
sS'589725'
p2558
I2084
sS'784462'
p2559
I2669
sS'568753'
p2560
I2479
sS'16269'
p2561
I1511
sS'250610'
p2562
I724
sS'218173'
p2563
I165
sS'512868'
p2564
I2625
sS'411514'
p2565
I618
sS'341757'
p2566
I24
sS'220227'
p2567
I593
sS'489200'
p2568
I2159
sS'551900'
p2569
I1942
sS'131565'
p2570
I976
sS'672712'
p2571
I2113
sS'806029'
p2572
I2313
sS'52472'
p2573
I294
sS'270677'
p2574
I50
sS'746926'
p2575
I2189
sS'427021'
p2576
I1497
sS'63583'
p2577
I1524
sS'48372'
p2578
I348
sS'9269'
p2579
I1184
sS'64283'
p2580
I1528
sS'738982'
p2581
I2303
sS'577970'
p2582
I2145
sS'454521'
p2583
I1462
sS'297810'
p2584
I1232
sS'265015'
p2585
I1015
sS'79804'
p2586
I169
sS'735983'
p2587
I2565
sS'46636'
p2588
I673
sS'69163'
p2589
I932
sS'422612'
p2590
I1359
sS'623553'
p2591
I2130
sS'306978'
p2592
I155
sS'16724'
p2593
I1516
sS'473250'
p2594
I1541
sS'513733'
p2595
I2626
sS'502437'
p2596
I2571
sS'707827'
p2597
I2393
sS'290476'
p2598
I867
sS'809264'
p2599
I1933
sS'9081'
p2600
I1183
sS'182072'
p2601
I385
sS'400624'
p2602
I1036
sS'552658'
p2603
I1945
sS'694541'
p2604
I2252
sS'570379'
p2605
I2486
sS'791809'
p2606
I2379
sS'212944'
p2607
I650
sS'247279'
p2608
I126
sS'21759'
p2609
I543
sS'653275'
p2610
I2397
sS'71252'
p2611
I607
sS'598849'
p2612
I2605
sS'467146'
p2613
I1121
sS'627338'
p2614
I2561
sS'723363'
p2615
I2621
sS'692872'
p2616
I2599
sS'441286'
p2617
I483
sS'113767'
p2618
I1371
sS'753436'
p2619
I1985
sS'419577'
p2620
I1031
sS'133519'
p2621
I941
sS'698782'
p2622
I1741
sS'257510'
p2623
I1680
sS'220886'
p2624
I599
sS'775900'
p2625
I2516
sS'484875'
p2626
I2646
sS'163517'
p2627
I810
sS'54764'
p2628
I587
sS'384141'
p2629
I578
sS'399567'
p2630
I1673
sS'94441'
p2631
I788
sS'217926'
p2632
I162
sS'226008'
p2633
I1159
sS'435953'
p2634
I1172
sS'294399'
p2635
I1552
sS'268151'
p2636
I560
sS'724768'
p2637
I1903
sS'569333'
p2638
I2481
sS'180356'
p2639
I860
sS'37321'
p2640
I683
sS'803510'
p2641
I2666
sS'285142'
p2642
I984
sS'29489'
p2643
I57
sS'471232'
p2644
I286
sS'252288'
p2645
I510
sS'283114'
p2646
I525
sS'694432'
p2647
I2251
sS'380247'
p2648
I307
sS'587637'
p2649
I2024
sS'291707'
p2650
I874
sS'188605'
p2651
I1731
sS'59110'
p2652
I1278
sS'462022'
p2653
I1686
sS'7081'
p2654
I1475
sS'339644'
p2655
I1010
sS'465763'
p2656
I1114
sS'338843'
p2657
I1006
sS'465766'
p2658
I1115
sS'174259'
p2659
I1086
sS'487995'
p2660
I2419
sS'365761'
p2661
I1308
sS'291389'
p2662
I873
sS'566822'
p2663
I2694
sS'67135'
p2664
I866
sS'232658'
p2665
I1422
sS'591015'
p2666
I2088
sS'112783'
p2667
I834
sS'440820'
p2668
I482
sS'447127'
p2669
I896
sS'707486'
p2670
I2384
sS'554631'
p2671
I2617
sS'582882'
p2672
I2231
sS'72603'
p2673
I690
sS'600338'
p2674
I2610
sS'89197'
p2675
I1052
sS'599253'
p2676
I2608
sS'322016'
p2677
I428
sS'133995'
p2678
I945
sS'331078'
p2679
I79
sS'426404'
p2680
I1491
sS'451495'
p2681
I224
sS'599493'
p2682
I2609
sS'553929'
p2683
I2615
sS'342620'
p2684
I26
sS'630012'
p2685
I2490
sS'143212'
p2686
I1346
sS'319394'
p2687
I1103
sS'462224'
p2688
I1688
sS'212556'
p2689
I1479
sS'408423'
p2690
I1387
sS'12558'
p2691
I1018
sS'625388'
p2692
I2553
sS'579392'
p2693
I2474
sS'450833'
p2694
I223
sS'257644'
p2695
I1684
sS'369737'
p2696
I914
sS'267399'
p2697
I558
sS'573462'
p2698
I2156
sS'644068'
p2699
I2372
sS'567747'
p2700
I2698
s.