(dp0
S'61518'
p1
I2925
sS'61519'
p2
I2029
sS'61302'
p3
I2490
sS'61512'
p4
I2434
sS'61513'
p5
I2283
sS'61510'
p6
I2573
sS'61511'
p7
I2637
sS'61516'
p8
I2823
sS'60988'
p9
I2400
sS'61514'
p10
I2524
sS'61515'
p11
I2623
sS'60793'
p12
I2295
sS'103147'
p13
I669
sS'60792'
p14
I2296
sS'61457'
p15
I2471
sS'61139'
p16
I2937
sS'61456'
p17
I2861
sS'60911'
p18
I2070
sS'60910'
p19
I2466
sS'103895'
p20
I165
sS'60912'
p21
I2546
sS'60915'
p22
I2416
sS'60914'
p23
I2288
sS'60917'
p24
I2261
sS'60916'
p25
I2494
sS'60919'
p26
I2359
sS'60918'
p27
I2164
sS'61178'
p28
I2816
sS'60982'
p29
I2509
sS'60983'
p30
I2784
sS'61170'
p31
I2665
sS'61171'
p32
I2707
sS'61172'
p33
I2208
sS'61173'
p34
I2731
sS'61174'
p35
I2538
sS'61175'
p36
I2276
sS'61176'
p37
I2654
sS'61177'
p38
I2002
sS'61206'
p39
I2936
sS'61207'
p40
I2489
sS'61204'
p41
I2293
sS'61300'
p42
I2186
sS'61202'
p43
I2748
sS'61203'
p44
I2056
sS'61200'
p45
I2173
sS'61201'
p46
I2857
sS'61101'
p47
I2974
sS'61208'
p48
I2887
sS'61209'
p49
I2522
sS'61196'
p50
I2847
sS'61197'
p51
I2565
sS'61194'
p52
I2098
sS'61195'
p53
I2049
sS'61192'
p54
I2718
sS'61103'
p55
I2717
sS'61190'
p56
I2984
sS'61191'
p57
I2703
sS'61102'
p58
I2376
sS'61198'
p59
I2042
sS'61199'
p60
I2550
sS'61064'
p61
I2077
sS'60829'
p62
I2069
sS'60828'
p63
I2672
sS'60825'
p64
I2547
sS'60824'
p65
I2695
sS'60827'
p66
I2315
sS'60826'
p67
I2445
sS'60821'
p68
I2712
sS'60820'
p69
I2163
sS'60823'
p70
I2339
sS'60822'
p71
I2706
sS'102849'
p72
I136
sS'102848'
p73
I383
sS'102843'
p74
I769
sS'102842'
p75
I424
sS'102841'
p76
I26
sS'102840'
p77
I169
sS'102847'
p78
I874
sS'102846'
p79
I44
sS'102845'
p80
I667
sS'102844'
p81
I210
sS'9517'
p82
I1988
sS'9528'
p83
I1261
sS'9529'
p84
I1407
sS'9524'
p85
I1887
sS'9525'
p86
I1287
sS'9526'
p87
I1097
sS'9527'
p88
I1425
sS'9520'
p89
I1280
sS'9521'
p90
I1923
sS'9522'
p91
I1723
sS'9523'
p92
I1745
sS'102937'
p93
I285
sS'102936'
p94
I530
sS'102935'
p95
I288
sS'102934'
p96
I284
sS'102933'
p97
I574
sS'102932'
p98
I390
sS'102931'
p99
I692
sS'102930'
p100
I691
sS'102939'
p101
I660
sS'102938'
p102
I45
sS'61141'
p103
I2253
sS'10639'
p104
I1307
sS'10638'
p105
I1249
sS'10637'
p106
I1411
sS'10636'
p107
I1613
sS'10635'
p108
I1701
sS'10634'
p109
I1390
sS'10633'
p110
I1795
sS'10141'
p111
I1466
sS'10140'
p112
I1162
sS'10143'
p113
I1388
sS'10142'
p114
I1472
sS'10145'
p115
I1165
sS'10144'
p116
I1808
sS'10147'
p117
I1001
sS'10146'
p118
I1831
sS'10149'
p119
I1413
sS'10148'
p120
I1290
sS'62403'
p121
I2617
sS'9638'
p122
I1750
sS'9639'
p123
I1958
sS'62402'
p124
I2380
sS'9630'
p125
I1449
sS'9631'
p126
I1571
sS'9632'
p127
I1330
sS'9633'
p128
I1127
sS'9634'
p129
I1546
sS'9635'
p130
I1860
sS'9636'
p131
I1787
sS'9637'
p132
I1132
sS'61071'
p133
I2284
sS'10169'
p134
I1823
sS'61070'
p135
I2685
sS'9611'
p136
I1892
sS'9939'
p137
I1635
sS'62409'
p138
I2955
sS'9938'
p139
I1549
sS'62408'
p140
I2778
sS'61075'
p141
I2997
sS'61074'
p142
I2112
sS'61077'
p143
I2676
sS'61076'
p144
I2362
sS'9744'
p145
I1155
sS'9745'
p146
I1175
sS'9746'
p147
I1098
sS'9747'
p148
I1838
sS'9740'
p149
I1121
sS'9741'
p150
I1341
sS'9742'
p151
I1188
sS'9743'
p152
I1297
sS'9619'
p153
I1937
sS'9748'
p154
I1221
sS'9749'
p155
I1095
sS'10093'
p156
I1486
sS'10092'
p157
I1567
sS'10091'
p158
I1432
sS'10090'
p159
I1493
sS'10097'
p160
I1539
sS'10096'
p161
I1467
sS'10095'
p162
I1550
sS'10094'
p163
I1884
sS'10099'
p164
I1862
sS'10098'
p165
I1574
sS'10042'
p166
I1826
sS'59850'
p167
I2700
sS'102717'
p168
I452
sS'61205'
p169
I2411
sS'60217'
p170
I2803
sS'61357'
p171
I2297
sS'103408'
p172
I652
sS'103409'
p173
I563
sS'103158'
p174
I409
sS'103159'
p175
I935
sS'103404'
p176
I460
sS'103405'
p177
I181
sS'103154'
p178
I115
sS'103407'
p179
I558
sS'103152'
p180
I255
sS'103153'
p181
I568
sS'103150'
p182
I279
sS'103403'
p183
I477
sS'61193'
p184
I2737
sS'61349'
p185
I2545
sS'61348'
p186
I2190
sS'61343'
p187
I2267
sS'61342'
p188
I2454
sS'61341'
p189
I2388
sS'61340'
p190
I2566
sS'61347'
p191
I2231
sS'61346'
p192
I2553
sS'61345'
p193
I2484
sS'61344'
p194
I2912
sS'103718'
p195
I894
sS'103719'
p196
I928
sS'103710'
p197
I106
sS'103711'
p198
I945
sS'103712'
p199
I546
sS'103713'
p200
I837
sS'103714'
p201
I21
sS'103715'
p202
I54
sS'103716'
p203
I177
sS'103717'
p204
I642
sS'10767'
p205
I1079
sS'102888'
p206
I564
sS'10769'
p207
I1530
sS'10768'
p208
I1190
sS'60902'
p209
I2176
sS'60903'
p210
I2978
sS'60900'
p211
I2063
sS'61073'
p212
I2601
sS'60906'
p213
I2096
sS'60907'
p214
I2769
sS'60904'
p215
I2788
sS'60905'
p216
I2548
sS'60908'
p217
I2196
sS'61318'
p218
I2451
sS'103376'
p219
I123
sS'103377'
p220
I77
sS'103374'
p221
I917
sS'103375'
p222
I330
sS'103372'
p223
I318
sS'103373'
p224
I623
sS'103370'
p225
I815
sS'103371'
p226
I199
sS'103378'
p227
I634
sS'103379'
p228
I416
sS'61233'
p229
I2211
sS'61232'
p230
I2266
sS'61231'
p231
I2979
sS'61230'
p232
I2736
sS'61237'
p233
I2907
sS'61236'
p234
I2241
sS'61235'
p235
I2367
sS'61234'
p236
I2485
sS'62454'
p237
I2709
sS'61239'
p238
I2309
sS'61238'
p239
I2330
sS'101628'
p240
I38
sS'101629'
p241
I359
sS'101626'
p242
I554
sS'101627'
p243
I239
sS'101624'
p244
I417
sS'101625'
p245
I796
sS'101622'
p246
I647
sS'101623'
p247
I878
sS'101620'
p248
I665
sS'101621'
p249
I493
sS'61527'
p250
I2520
sS'61526'
p251
I2865
sS'61525'
p252
I2007
sS'61524'
p253
I2370
sS'61523'
p254
I2378
sS'61522'
p255
I2203
sS'60838'
p256
I2076
sS'60839'
p257
I2034
sS'60836'
p258
I2199
sS'61299'
p259
I2365
sS'60834'
p260
I2229
sS'60835'
p261
I2605
sS'60832'
p262
I2827
sS'60833'
p263
I2810
sS'60830'
p264
I2088
sS'60831'
p265
I2097
sS'61295'
p266
I2015
sS'61294'
p267
I2905
sS'61297'
p268
I2508
sS'60837'
p269
I2675
sS'61296'
p270
I2204
sS'10800'
p271
I1866
sS'10801'
p272
I1905
sS'103754'
p273
I201
sS'61293'
p274
I2916
sS'103755'
p275
I780
sS'62319'
p276
I2233
sS'10803'
p277
I1674
sS'103024'
p278
I805
sS'62318'
p279
I2185
sS'61319'
p280
I2965
sS'103757'
p281
I435
sS'9539'
p282
I1969
sS'9538'
p283
I1183
sS'9537'
p284
I1623
sS'103022'
p285
I320
sS'9535'
p286
I1153
sS'9534'
p287
I1844
sS'9533'
p288
I1959
sS'9532'
p289
I1803
sS'9531'
p290
I1581
sS'9530'
p291
I1128
sS'102942'
p292
I324
sS'102943'
p293
I597
sS'102940'
p294
I636
sS'102941'
p295
I323
sS'102946'
p296
I85
sS'102947'
p297
I299
sS'102944'
p298
I814
sS'102945'
p299
I702
sS'102948'
p300
I716
sS'102949'
p301
I719
sS'62317'
p302
I2513
sS'61078'
p303
I2415
sS'10620'
p304
I1815
sS'10622'
p305
I1807
sS'10152'
p306
I1855
sS'10153'
p307
I1015
sS'10150'
p308
I1182
sS'10151'
p309
I1832
sS'10156'
p310
I1009
sS'10157'
p311
I1606
sS'10154'
p312
I1483
sS'10155'
p313
I1578
sS'10158'
p314
I1129
sS'10159'
p315
I1691
sS'62478'
p316
I2557
sS'62479'
p317
I2552
sS'9629'
p318
I1917
sS'9628'
p319
I1367
sS'9623'
p320
I1356
sS'9622'
p321
I1595
sS'9621'
p322
I1515
sS'9620'
p323
I1292
sS'9627'
p324
I1718
sS'9626'
p325
I1698
sS'9625'
p326
I1030
sS'9624'
p327
I1042
sS'61399'
p328
I2710
sS'102890'
p329
I734
sS'102891'
p330
I851
sS'102892'
p331
I10
sS'102893'
p332
I212
sS'102894'
p333
I683
sS'102895'
p334
I451
sS'102896'
p335
I620
sS'102897'
p336
I759
sS'102898'
p337
I420
sS'102899'
p338
I907
sS'61135'
p339
I2104
sS'9757'
p340
I1868
sS'9756'
p341
I1627
sS'9755'
p342
I1764
sS'9754'
p343
I1999
sS'9753'
p344
I1084
sS'9752'
p345
I1237
sS'9751'
p346
I1029
sS'9750'
p347
I1952
sS'61136'
p348
I2499
sS'9759'
p349
I1622
sS'9758'
p350
I1274
sS'10088'
p351
I1919
sS'10089'
p352
I1742
sS'10084'
p353
I1746
sS'10085'
p354
I1231
sS'10086'
p355
I1295
sS'10087'
p356
I1320
sS'10080'
p357
I1288
sS'10081'
p358
I1263
sS'10082'
p359
I1834
sS'10083'
p360
I1861
sS'102768'
p361
I348
sS'102769'
p362
I465
sS'61322'
p363
I2324
sS'102762'
p364
I185
sS'102763'
p365
I340
sS'102760'
p366
I87
sS'102761'
p367
I882
sS'102766'
p368
I976
sS'102767'
p369
I11
sS'102764'
p370
I821
sS'102765'
p371
I411
sS'61267'
p372
I2954
sS'61010'
p373
I2294
sS'61130'
p374
I2393
sS'61131'
p375
I2631
sS'61159'
p376
I2883
sS'10697'
p377
I1918
sS'103383'
p378
I122
sS'103382'
p379
I78
sS'103381'
p380
I57
sS'103380'
p381
I242
sS'103387'
p382
I474
sS'103386'
p383
I490
sS'103385'
p384
I944
sS'103384'
p385
I134
sS'103419'
p386
I80
sS'103418'
p387
I296
sS'103149'
p388
I244
sS'103148'
p389
I632
sS'103413'
p390
I365
sS'103144'
p391
I603
sS'103411'
p392
I799
sS'103146'
p393
I382
sS'103141'
p394
I362
sS'103416'
p395
I765
sS'103143'
p396
I850
sS'103142'
p397
I996
sS'62449'
p398
I2109
sS'9988'
p399
I1955
sS'9989'
p400
I1240
sS'9986'
p401
I1563
sS'9987'
p402
I1514
sS'9984'
p403
I1289
sS'9985'
p404
I1073
sS'9982'
p405
I1178
sS'9983'
p406
I1345
sS'9980'
p407
I1799
sS'9981'
p408
I1488
sS'103707'
p409
I457
sS'103706'
p410
I995
sS'103705'
p411
I619
sS'103704'
p412
I473
sS'103703'
p413
I274
sS'103702'
p414
I590
sS'103701'
p415
I105
sS'103700'
p416
I969
sS'103709'
p417
I583
sS'103708'
p418
I235
sS'61496'
p419
I2191
sS'61492'
p420
I2938
sS'61490'
p421
I2152
sS'60939'
p422
I2953
sS'60938'
p423
I2592
sS'60937'
p424
I2033
sS'60936'
p425
I2530
sS'60935'
p426
I2425
sS'60934'
p427
I2656
sS'60933'
p428
I2303
sS'60932'
p429
I2343
sS'60931'
p430
I2844
sS'60930'
p431
I2659
sS'61354'
p432
I2689
sS'61355'
p433
I2828
sS'103367'
p434
I431
sS'103366'
p435
I128
sS'103361'
p436
I395
sS'61351'
p437
I2666
sS'61352'
p438
I2848
sS'103362'
p439
I449
sS'103369'
p440
I519
sS'103368'
p441
I479
sS'61228'
p442
I2166
sS'61229'
p443
I2879
sS'61224'
p444
I2903
sS'61225'
p445
I2834
sS'61226'
p446
I2481
sS'61227'
p447
I2465
sS'61220'
p448
I2996
sS'61221'
p449
I2864
sS'61222'
p450
I2354
sS'61223'
p451
I2615
sS'61307'
p452
I2259
sS'10171'
p453
I1869
sS'61306'
p454
I2716
sS'61305'
p455
I2148
sS'61304'
p456
I2896
sS'101639'
p457
I228
sS'101638'
p458
I182
sS'101635'
p459
I319
sS'101634'
p460
I150
sS'101637'
p461
I913
sS'101636'
p462
I20
sS'101631'
p463
I709
sS'101630'
p464
I970
sS'101633'
p465
I341
sS'103337'
p466
I998
sS'9964'
p467
I1669
sS'9965'
p468
I1901
sS'9966'
p469
I1810
sS'9967'
p470
I1403
sS'9960'
p471
I1072
sS'9961'
p472
I1668
sS'9962'
p473
I1693
sS'9963'
p474
I1223
sS'60803'
p475
I2697
sS'60802'
p476
I2447
sS'60801'
p477
I2630
sS'60800'
p478
I2050
sS'9968'
p479
I1954
sS'9969'
p480
I1089
sS'60804'
p481
I2549
sS'61474'
p482
I2577
sS'61477'
p483
I2009
sS'61067'
p484
I2534
sS'103803'
p485
I135
sS'60249'
p486
I2943
sS'60248'
p487
I2058
sS'9933'
p488
I1631
sS'60245'
p489
I2310
sS'60244'
p490
I2728
sS'60247'
p491
I2768
sS'60246'
p492
I2822
sS'60241'
p493
I2257
sS'60240'
p494
I2886
sS'60243'
p495
I2831
sS'61470'
p496
I2422
sS'61473'
p497
I2487
sS'61472'
p498
I2333
sS'9932'
p499
I1389
sS'9508'
p500
I1882
sS'9509'
p501
I1166
sS'9502'
p502
I1037
sS'9503'
p503
I1966
sS'9500'
p504
I1725
sS'9501'
p505
I1931
sS'9506'
p506
I1428
sS'9507'
p507
I1685
sS'9504'
p508
I1078
sS'9505'
p509
I1650
sS'102951'
p510
I745
sS'102950'
p511
I264
sS'102953'
p512
I635
sS'102952'
p513
I246
sS'102955'
p514
I378
sS'102954'
p515
I508
sS'102957'
p516
I99
sS'102956'
p517
I252
sS'102959'
p518
I400
sS'102958'
p519
I961
sS'60791'
p520
I2758
sS'60790'
p521
I2761
sS'60797'
p522
I2911
sS'60796'
p523
I2292
sS'60795'
p524
I2067
sS'60794'
p525
I2213
sS'9616'
p526
I1728
sS'9617'
p527
I1430
sS'9614'
p528
I1235
sS'9615'
p529
I1285
sS'9612'
p530
I1131
sS'9613'
p531
I1942
sS'9610'
p532
I1404
sS'10168'
p533
I1431
sS'10167'
p534
I1784
sS'10166'
p535
I1473
sS'10165'
p536
I1865
sS'10164'
p537
I1027
sS'10163'
p538
I1547
sS'10162'
p539
I1814
sS'9618'
p540
I1582
sS'10160'
p541
I1257
sS'61084'
p542
I2863
sS'61085'
p543
I2881
sS'61086'
p544
I2137
sS'101669'
p545
I641
sS'61080'
p546
I2733
sS'61081'
p547
I2609
sS'61072'
p548
I2629
sS'10765'
p549
I1380
sS'61082'
p550
I2160
sS'102889'
p551
I570
sS'10766'
p552
I1016
sS'102887'
p553
I178
sS'102886'
p554
I146
sS'102885'
p555
I36
sS'102884'
p556
I918
sS'102883'
p557
I283
sS'102882'
p558
I282
sS'102881'
p559
I757
sS'102880'
p560
I453
sS'9762'
p561
I1247
sS'9763'
p562
I1647
sS'9760'
p563
I1065
sS'9761'
p564
I1505
sS'9766'
p565
I1749
sS'9767'
p566
I1152
sS'9764'
p567
I1681
sS'9765'
p568
I1141
sS'9768'
p569
I1019
sS'9769'
p570
I1906
sS'60976'
p571
I2901
sS'102779'
p572
I187
sS'102778'
p573
I398
sS'102771'
p574
I343
sS'102770'
p575
I934
sS'102773'
p576
I209
sS'102772'
p577
I673
sS'102775'
p578
I6
sS'102774'
p579
I656
sS'102777'
p580
I241
sS'102776'
p581
I55
sS'61467'
p582
I2933
sS'61009'
p583
I2328
sS'10185'
p584
I1541
sS'10184'
p585
I1910
sS'10187'
p586
I1442
sS'10186'
p587
I1005
sS'10181'
p588
I1076
sS'10180'
p589
I1126
sS'10183'
p590
I1708
sS'10182'
p591
I1521
sS'10189'
p592
I1426
sS'10188'
p593
I1074
sS'60978'
p594
I2022
sS'9959'
p595
I1663
sS'9958'
p596
I1921
sS'9892'
p597
I1448
sS'9893'
p598
I1703
sS'61408'
p599
I2169
sS'60972'
p600
I2452
sS'60971'
p601
I2141
sS'103178'
p602
I827
sS'103179'
p603
I940
sS'60970'
p604
I2340
sS'62131'
p605
I2268
sS'62130'
p606
I2491
sS'103170'
p607
I476
sS'103523'
p608
I835
sS'103172'
p609
I988
sS'103173'
p610
I167
sS'103174'
p611
I808
sS'103175'
p612
I948
sS'103176'
p613
I373
sS'103522'
p614
I594
sS'59497'
p615
I2399
sS'60975'
p616
I2239
sS'103171'
p617
I418
sS'60974'
p618
I2806
sS'60871'
p619
I2249
sS'103282'
p620
I819
sS'9998'
p621
I1358
sS'103280'
p622
I3
sS'103281'
p623
I679
sS'103284'
p624
I170
sS'10795'
p625
I1584
sS'9991'
p626
I1960
sS'9990'
p627
I1586
sS'9993'
p628
I1997
sS'103177'
p629
I754
sS'9995'
p630
I1491
sS'10796'
p631
I1524
sS'9997'
p632
I1619
sS'9996'
p633
I1995
sS'103772'
p634
I488
sS'103773'
p635
I640
sS'103770'
p636
I456
sS'103771'
p637
I545
sS'103776'
p638
I468
sS'103777'
p639
I117
sS'103774'
p640
I176
sS'103775'
p641
I777
sS'10790'
p642
I1218
sS'103778'
p643
I981
sS'103779'
p644
I90
sS'10023'
p645
I1348
sS'10020'
p646
I1733
sS'10021'
p647
I1160
sS'61039'
p648
I2815
sS'61038'
p649
I2355
sS'61035'
p650
I2897
sS'61034'
p651
I2999
sS'61037'
p652
I2407
sS'61036'
p653
I2525
sS'61031'
p654
I2960
sS'61030'
p655
I2504
sS'61033'
p656
I2796
sS'61032'
p657
I2708
sS'10727'
p658
I1980
sS'61520'
p659
I2730
sS'60928'
p660
I2514
sS'60929'
p661
I2722
sS'60920'
p662
I2396
sS'60921'
p663
I2531
sS'60922'
p664
I2926
sS'60923'
p665
I2945
sS'60924'
p666
I2762
sS'60925'
p667
I2008
sS'60926'
p668
I2264
sS'60927'
p669
I2235
sS'103350'
p670
I658
sS'103351'
p671
I644
sS'103352'
p672
I236
sS'103353'
p673
I52
sS'103354'
p674
I82
sS'61324'
p675
I2519
sS'61327'
p676
I2118
sS'61326'
p677
I2532
sS'61329'
p678
I2958
sS'61328'
p679
I2972
sS'61259'
p680
I2073
sS'61258'
p681
I2826
sS'61251'
p682
I2721
sS'61250'
p683
I2975
sS'61253'
p684
I2450
sS'61252'
p685
I2110
sS'61255'
p686
I2969
sS'61254'
p687
I2041
sS'61257'
p688
I2006
sS'61256'
p689
I2813
sS'61143'
p690
I2446
sS'101608'
p691
I133
sS'101609'
p692
I346
sS'60816'
p693
I2563
sS'60817'
p694
I2120
sS'60810'
p695
I2779
sS'60811'
p696
I2614
sS'60812'
p697
I2512
sS'60813'
p698
I2395
sS'101600'
p699
I48
sS'101601'
p700
I740
sS'101602'
p701
I419
sS'101603'
p702
I0
sS'101604'
p703
I922
sS'101605'
p704
I231
sS'101606'
p705
I475
sS'101607'
p706
I254
sS'9977'
p707
I1602
sS'9976'
p708
I1971
sS'9975'
p709
I1837
sS'9974'
p710
I1489
sS'9973'
p711
I1446
sS'9972'
p712
I1301
sS'9971'
p713
I1690
sS'9970'
p714
I1465
sS'9979'
p715
I1354
sS'9978'
p716
I1250
sS'61359'
p717
I2279
sS'60252'
p718
I2680
sS'60253'
p719
I2798
sS'60250'
p720
I2639
sS'60251'
p721
I2408
sS'9999'
p722
I1382
sS'103283'
p723
I915
sS'60784'
p724
I2195
sS'60785'
p725
I2187
sS'60786'
p726
I2581
sS'60787'
p727
I2044
sS'60780'
p728
I2738
sS'60781'
p729
I2790
sS'60782'
p730
I2607
sS'60783'
p731
I2392
sS'60788'
p732
I2839
sS'60789'
p733
I2363
sS'102968'
p734
I88
sS'102969'
p735
I107
sS'102964'
p736
I386
sS'102965'
p737
I864
sS'102966'
p738
I914
sS'102967'
p739
I309
sS'102960'
p740
I941
sS'102961'
p741
I703
sS'102962'
p742
I467
sS'102963'
p743
I920
sS'61277'
p744
I2843
sS'9992'
p745
I1970
sS'61276'
p746
I2904
sS'61275'
p747
I2440
sS'9994'
p748
I1526
sS'61311'
p749
I2645
sS'61274'
p750
I2692
sS'61273'
p751
I2658
sS'61272'
p752
I2188
sS'9601'
p753
I1386
sS'10179'
p754
I1254
sS'9603'
p755
I1513
sS'9602'
p756
I1849
sS'9605'
p757
I1226
sS'9604'
p758
I1310
sS'9607'
p759
I1975
sS'9606'
p760
I1447
sS'9609'
p761
I1210
sS'9608'
p762
I1752
sS'10172'
p763
I1871
sS'10173'
p764
I1625
sS'10174'
p765
I1137
sS'10175'
p766
I1418
sS'10176'
p767
I1600
sS'10177'
p768
I1050
sS'10161'
p769
I1601
sS'61353'
p770
I2648
sS'9515'
p771
I1792
sS'9514'
p772
I1485
sS'10770'
p773
I1068
sS'9516'
p774
I1316
sS'9511'
p775
I1314
sS'9510'
p776
I1452
sS'9513'
p777
I1504
sS'9512'
p778
I1544
sS'61278'
p779
I2394
sS'9519'
p780
I1536
sS'9518'
p781
I1978
sS'9779'
p782
I1461
sS'9778'
p783
I1829
sS'9775'
p784
I1298
sS'9774'
p785
I1877
sS'9777'
p786
I1275
sS'9776'
p787
I1099
sS'9771'
p788
I1003
sS'9770'
p789
I1458
sS'9773'
p790
I1048
sS'9772'
p791
I1712
sS'102744'
p792
I770
sS'102745'
p793
I202
sS'102746'
p794
I704
sS'102747'
p795
I265
sS'102740'
p796
I183
sS'102741'
p797
I593
sS'102742'
p798
I59
sS'102743'
p799
I552
sS'102748'
p800
I499
sS'102749'
p801
I469
sS'102986'
p802
I432
sS'102987'
p803
I838
sS'102984'
p804
I34
sS'102985'
p805
I906
sS'102982'
p806
I783
sS'102983'
p807
I166
sS'102980'
p808
I824
sS'102981'
p809
I132
sS'102988'
p810
I581
sS'102989'
p811
I208
sS'10206'
p812
I1208
sS'10207'
p813
I1828
sS'10204'
p814
I1497
sS'10205'
p815
I1421
sS'10202'
p816
I1893
sS'10203'
p817
I1028
sS'10200'
p818
I1173
sS'10201'
p819
I1559
sS'10208'
p820
I1964
sS'10196'
p821
I1632
sS'10197'
p822
I1375
sS'10194'
p823
I1057
sS'10195'
p824
I1429
sS'10192'
p825
I1566
sS'10193'
p826
I1537
sS'10190'
p827
I1695
sS'10191'
p828
I1414
sS'9491'
p829
I1510
sS'10198'
p830
I1296
sS'10199'
p831
I1309
sS'61428'
p832
I2756
sS'103167'
p833
I334
sS'103166'
p834
I81
sS'103165'
p835
I735
sS'103164'
p836
I195
sS'103163'
p837
I872
sS'103162'
p838
I482
sS'103161'
p839
I596
sS'103160'
p840
I243
sS'103169'
p841
I315
sS'103168'
p842
I399
sS'62126'
p843
I2928
sS'62127'
p844
I2789
sS'62129'
p845
I2216
sS'8514'
p846
I1798
sS'61426'
p847
I2237
sS'61427'
p848
I2252
sS'103293'
p849
I156
sS'103292'
p850
I705
sS'103295'
p851
I193
sS'103294'
p852
I407
sS'103297'
p853
I774
sS'103296'
p854
I893
sS'103299'
p855
I321
sS'103298'
p856
I954
sS'61313'
p857
I2698
sS'103761'
p858
I544
sS'103760'
p859
I927
sS'103763'
p860
I248
sS'103762'
p861
I607
sS'103765'
p862
I586
sS'103764'
p863
I939
sS'103767'
p864
I125
sS'103766'
p865
I592
sS'103769'
p866
I388
sS'103768'
p867
I800
sS'61028'
p868
I2165
sS'61029'
p869
I2236
sS'61026'
p870
I2939
sS'61027'
p871
I2269
sS'61024'
p872
I2986
sS'61025'
p873
I2052
sS'61022'
p874
I2116
sS'61023'
p875
I2413
sS'61020'
p876
I2064
sS'61021'
p877
I2225
sS'62418'
p878
I2640
sS'61332'
p879
I2644
sS'61333'
p880
I2037
sS'61330'
p881
I2515
sS'61331'
p882
I2105
sS'61336'
p883
I2664
sS'61337'
p884
I2878
sS'103349'
p885
I83
sS'103348'
p886
I639
sS'103347'
p887
I678
sS'103346'
p888
I531
sS'103345'
p889
I15
sS'103344'
p890
I649
sS'103343'
p891
I121
sS'103342'
p892
I870
sS'103341'
p893
I68
sS'103340'
p894
I708
sS'61248'
p895
I2856
sS'61249'
p896
I2946
sS'61242'
p897
I2927
sS'61243'
p898
I2302
sS'61240'
p899
I2594
sS'61241'
p900
I2775
sS'61246'
p901
I2010
sS'61247'
p902
I2281
sS'61244'
p903
I2427
sS'61245'
p904
I2624
sS'101617'
p905
I601
sS'101616'
p906
I559
sS'101615'
p907
I339
sS'101614'
p908
I2
sS'101613'
p909
I258
sS'101612'
p910
I785
sS'101611'
p911
I174
sS'101610'
p912
I7
sS'101619'
p913
I19
sS'101618'
p914
I272
sS'60861'
p915
I2274
sS'60860'
p916
I2819
sS'10693'
p917
I1715
sS'60862'
p918
I2085
sS'60865'
p919
I2405
sS'60864'
p920
I2763
sS'60867'
p921
I2478
sS'60866'
p922
I2651
sS'60869'
p923
I2851
sS'60868'
p924
I2495
sS'9942'
p925
I1824
sS'9943'
p926
I1319
sS'9940'
p927
I1542
sS'9941'
p928
I1972
sS'9946'
p929
I1044
sS'9947'
p930
I1055
sS'9944'
p931
I1036
sS'9945'
p932
I1836
sS'9948'
p933
I1101
sS'9949'
p934
I1394
sS'61048'
p935
I2246
sS'61320'
p936
I2234
sS'61323'
p937
I2812
sS'10835'
p938
I1776
sS'10834'
p939
I1045
sS'10837'
p940
I1124
sS'10836'
p941
I1326
sS'10831'
p942
I1914
sS'10830'
p943
I1100
sS'10833'
p944
I1991
sS'10832'
p945
I1169
sS'61325'
p946
I2412
sS'10839'
p947
I1338
sS'10838'
p948
I1531
sS'10726'
p949
I1374
sS'61040'
p950
I2353
sS'102979'
p951
I66
sS'102978'
p952
I13
sS'10051'
p953
I1920
sS'61041'
p954
I2729
sS'102973'
p955
I840
sS'102972'
p956
I271
sS'102971'
p957
I943
sS'102970'
p958
I510
sS'102977'
p959
I989
sS'102976'
p960
I192
sS'102975'
p961
I760
sS'102974'
p962
I247
sS'61043'
p963
I2462
sS'61044'
p964
I2670
sS'61045'
p965
I2923
sS'61046'
p966
I2634
sS'61047'
p967
I2240
sS'60913'
p968
I2739
sS'62429'
p969
I2384
sS'62428'
p970
I2158
sS'62427'
p971
I2797
sS'62426'
p972
I2599
sS'62425'
p973
I2642
sS'62420'
p974
I2746
sS'10698'
p975
I1741
sS'9168'
p976
I1686
sS'9169'
p977
I1864
sS'9176'
p978
I1909
sS'9164'
p979
I1377
sS'9165'
p980
I1705
sS'9166'
p981
I1061
sS'9167'
p982
I1189
sS'10695'
p983
I1268
sS'10694'
p984
I1207
sS'9162'
p985
I1511
sS'10696'
p986
I1053
sS'9560'
p987
I1754
sS'9561'
p988
I1665
sS'9562'
p989
I1989
sS'9563'
p990
I1158
sS'9564'
p991
I1002
sS'9565'
p992
I1487
sS'9566'
p993
I1242
sS'9567'
p994
I1898
sS'9568'
p995
I1532
sS'9569'
p996
I1689
sS'9170'
p997
I1148
sS'10743'
p998
I1949
sS'10742'
p999
I1562
sS'10741'
p1000
I1219
sS'10740'
p1001
I1678
sS'9708'
p1002
I1251
sS'9709'
p1003
I1365
sS'61558'
p1004
I2469
sS'9700'
p1005
I1633
sS'9701'
p1006
I1322
sS'9702'
p1007
I1369
sS'9703'
p1008
I1821
sS'9704'
p1009
I1847
sS'9705'
p1010
I1139
sS'9706'
p1011
I1985
sS'9707'
p1012
I1313
sS'102753'
p1013
I222
sS'102752'
p1014
I75
sS'102751'
p1015
I441
sS'102750'
p1016
I547
sS'102757'
p1017
I103
sS'102756'
p1018
I205
sS'102755'
p1019
I987
sS'102754'
p1020
I245
sS'102759'
p1021
I225
sS'102758'
p1022
I403
sS'102995'
p1023
I223
sS'102994'
p1024
I931
sS'102997'
p1025
I464
sS'102996'
p1026
I688
sS'102991'
p1027
I781
sS'102990'
p1028
I743
sS'102993'
p1029
I972
sS'102992'
p1030
I219
sS'102999'
p1031
I213
sS'102998'
p1032
I353
sS'61517'
p1033
I2635
sS'61429'
p1034
I2019
sS'10797'
p1035
I1464
sS'60814'
p1036
I2497
sS'60815'
p1037
I2464
sS'61358'
p1038
I2108
sS'103112'
p1039
I455
sS'103113'
p1040
I104
sS'103110'
p1041
I836
sS'103111'
p1042
I89
sS'103116'
p1043
I41
sS'103117'
p1044
I648
sS'103114'
p1045
I549
sS'103115'
p1046
I60
sS'103118'
p1047
I661
sS'103119'
p1048
I761
sS'62113'
p1049
I2181
sS'62117'
p1050
I2611
sS'62116'
p1051
I2099
sS'62115'
p1052
I2135
sS'62114'
p1053
I2753
sS'62118'
p1054
I2752
sS'60818'
p1055
I2030
sS'60819'
p1056
I2479
sS'61134'
p1057
I2140
sS'103758'
p1058
I173
sS'103028'
p1059
I794
sS'103029'
p1060
I9
sS'103026'
p1061
I370
sS'103027'
p1062
I312
sS'103756'
p1063
I151
sS'103025'
p1064
I926
sS'103750'
p1065
I834
sS'103023'
p1066
I344
sS'103020'
p1067
I126
sS'103021'
p1068
I871
sS'61137'
p1069
I2968
sS'60959'
p1070
I2334
sS'9580'
p1071
I1503
sS'60958'
p1072
I2383
sS'61019'
p1073
I2603
sS'61018'
p1074
I2220
sS'61132'
p1075
I2319
sS'61013'
p1076
I2277
sS'61012'
p1077
I2693
sS'61011'
p1078
I2357
sS'61133'
p1079
I2128
sS'61017'
p1080
I2556
sS'61016'
p1081
I2331
sS'61015'
p1082
I2542
sS'61014'
p1083
I2200
sS'9581'
p1084
I1775
sS'61499'
p1085
I2205
sS'61498'
p1086
I2372
sS'61497'
p1087
I2435
sS'61138'
p1088
I2179
sS'61495'
p1089
I2655
sS'61494'
p1090
I2021
sS'61493'
p1091
I2854
sS'9650'
p1092
I1400
sS'61491'
p1093
I2876
sS'60950'
p1094
I2028
sS'103156'
p1095
I984
sS'103338'
p1096
I715
sS'103339'
p1097
I37
sS'61309'
p1098
I2596
sS'103157'
p1099
I63
sS'103332'
p1100
I368
sS'103333'
p1101
I670
sS'103330'
p1102
I408
sS'103331'
p1103
I23
sS'103336'
p1104
I113
sS'103406'
p1105
I912
sS'103334'
p1106
I39
sS'103335'
p1107
I823
sS'61475'
p1108
I2089
sS'103801'
p1109
I885
sS'103802'
p1110
I412
sS'103155'
p1111
I723
sS'103804'
p1112
I613
sS'103805'
p1113
I273
sS'103806'
p1114
I699
sS'103807'
p1115
I338
sS'103808'
p1116
I501
sS'103809'
p1117
I218
sS'61479'
p1118
I2401
sS'61478'
p1119
I2215
sS'101662'
p1120
I397
sS'101663'
p1121
I712
sS'101660'
p1122
I880
sS'101661'
p1123
I614
sS'101666'
p1124
I269
sS'101667'
p1125
I627
sS'101664'
p1126
I293
sS'101665'
p1127
I385
sS'101668'
p1128
I768
sS'103151'
p1129
I610
sS'10121'
p1130
I1778
sS'60872'
p1131
I2011
sS'60873'
p1132
I2473
sS'60870'
p1133
I2461
sS'10120'
p1134
I1614
sS'60876'
p1135
I2157
sS'60877'
p1136
I2306
sS'60874'
p1137
I2678
sS'60875'
p1138
I2627
sS'60878'
p1139
I2130
sS'60879'
p1140
I2307
sS'103244'
p1141
I606
sS'103242'
p1142
I261
sS'103243'
p1143
I729
sS'103240'
p1144
I631
sS'103241'
p1145
I110
sS'9955'
p1146
I1936
sS'9954'
p1147
I1373
sS'9957'
p1148
I1974
sS'9956'
p1149
I1498
sS'9951'
p1150
I1706
sS'9950'
p1151
I1961
sS'9953'
p1152
I1067
sS'9952'
p1153
I1652
sS'10826'
p1154
I1610
sS'10827'
p1155
I1727
sS'10824'
p1156
I1323
sS'10825'
p1157
I1229
sS'10822'
p1158
I1187
sS'10823'
p1159
I1378
sS'10820'
p1160
I1996
sS'10821'
p1161
I1709
sS'10828'
p1162
I1682
sS'10829'
p1163
I1085
sS'61270'
p1164
I2348
sS'60230'
p1165
I2962
sS'60231'
p1166
I2192
sS'10683'
p1167
I1662
sS'9175'
p1168
I1675
sS'9174'
p1169
I1732
sS'9173'
p1170
I1883
sS'9172'
p1171
I1243
sS'10684'
p1172
I1558
sS'10685'
p1173
I1024
sS'9573'
p1174
I1291
sS'9572'
p1175
I1181
sS'9571'
p1176
I1154
sS'9570'
p1177
I1329
sS'9577'
p1178
I1335
sS'9576'
p1179
I1516
sS'9575'
p1180
I1607
sS'9574'
p1181
I1835
sS'9579'
p1182
I1238
sS'9578'
p1183
I1077
sS'9719'
p1184
I1328
sS'9718'
p1185
I1500
sS'60234'
p1186
I2374
sS'9713'
p1187
I1734
sS'9712'
p1188
I1827
sS'9711'
p1189
I1203
sS'9710'
p1190
I1540
sS'9717'
p1191
I1612
sS'9716'
p1192
I1017
sS'9715'
p1193
I1816
sS'9714'
p1194
I1340
sS'61008'
p1195
I2820
sS'103650'
p1196
I964
sS'103301'
p1197
I224
sS'9839'
p1198
I1585
sS'103656'
p1199
I853
sS'9832'
p1200
I1714
sS'9833'
p1201
I1484
sS'9830'
p1202
I1117
sS'9831'
p1203
I1401
sS'103101'
p1204
I873
sS'103100'
p1205
I591
sS'103103'
p1206
I804
sS'103102'
p1207
I440
sS'103105'
p1208
I727
sS'103104'
p1209
I539
sS'103107'
p1210
I450
sS'103106'
p1211
I717
sS'103109'
p1212
I262
sS'103108'
p1213
I526
sS'10788'
p1214
I1983
sS'62104'
p1215
I2562
sS'10673'
p1216
I1522
sS'10672'
p1217
I1656
sS'10675'
p1218
I1738
sS'10674'
p1219
I1624
sS'60173'
p1220
I2458
sS'103749'
p1221
I350
sS'103748'
p1222
I404
sS'103039'
p1223
I977
sS'103038'
p1224
I778
sS'60172'
p1225
I2800
sS'103035'
p1226
I426
sS'103034'
p1227
I393
sS'103741'
p1228
I332
sS'103740'
p1229
I933
sS'103031'
p1230
I524
sS'103030'
p1231
I358
sS'103745'
p1232
I587
sS'103744'
p1233
I532
sS'102804'
p1234
I637
sS'60177'
p1235
I2066
sS'60176'
p1236
I2314
sS'61042'
p1237
I2684
sS'60175'
p1238
I2641
sS'60174'
p1239
I2906
sS'61431'
p1240
I2389
sS'61449'
p1241
I2677
sS'61488'
p1242
I2793
sS'61489'
p1243
I2336
sS'9818'
p1244
I1881
sS'103751'
p1245
I858
sS'9814'
p1246
I1818
sS'9815'
p1247
I1317
sS'9816'
p1248
I1644
sS'9817'
p1249
I1568
sS'9810'
p1250
I1092
sS'9811'
p1251
I1201
sS'9812'
p1252
I1185
sS'9813'
p1253
I1694
sS'103329'
p1254
I380
sS'103328'
p1255
I675
sS'61468'
p1256
I2745
sS'61117'
p1257
I2808
sS'103321'
p1258
I749
sS'103320'
p1259
I352
sS'103323'
p1260
I990
sS'103322'
p1261
I579
sS'103325'
p1262
I899
sS'61315'
p1263
I2000
sS'103327'
p1264
I653
sS'103326'
p1265
I844
sS'61466'
p1266
I2426
sS'60998'
p1267
I2280
sS'61464'
p1268
I2918
sS'103752'
p1269
I289
sS'61462'
p1270
I2884
sS'61463'
p1271
I2714
sS'61460'
p1272
I2197
sS'61461'
p1273
I2243
sS'60991'
p1274
I2998
sS'60990'
p1275
I2020
sS'103815'
p1276
I919
sS'103814'
p1277
I811
sS'103813'
p1278
I277
sS'103812'
p1279
I405
sS'103811'
p1280
I625
sS'103810'
p1281
I496
sS'101671'
p1282
I515
sS'101670'
p1283
I414
sS'101673'
p1284
I196
sS'101672'
p1285
I517
sS'101675'
p1286
I908
sS'101674'
p1287
I141
sS'101677'
p1288
I354
sS'101676'
p1289
I500
sS'101679'
p1290
I211
sS'101678'
p1291
I782
sS'61111'
p1292
I2620
sS'103753'
p1293
I286
sS'60849'
p1294
I2780
sS'60848'
p1295
I2347
sS'60847'
p1296
I2238
sS'60846'
p1297
I2836
sS'60845'
p1298
I2749
sS'60844'
p1299
I2668
sS'60843'
p1300
I2824
sS'60842'
p1301
I2922
sS'60841'
p1302
I2830
sS'60840'
p1303
I2424
sS'9928'
p1304
I1492
sS'9929'
p1305
I1897
sS'103257'
p1306
I738
sS'103256'
p1307
I905
sS'103251'
p1308
I259
sS'61001'
p1309
I2182
sS'61002'
p1310
I2170
sS'61003'
p1311
I2223
sS'9920'
p1312
I1867
sS'9921'
p1313
I1302
sS'9922'
p1314
I1554
sS'9923'
p1315
I1801
sS'103259'
p1316
I950
sS'103258'
p1317
I957
sS'9926'
p1318
I1336
sS'9927'
p1319
I1245
sS'60201'
p1320
I2888
sS'60200'
p1321
I2329
sS'60203'
p1322
I2941
sS'60202'
p1323
I2957
sS'60205'
p1324
I2920
sS'60204'
p1325
I2113
sS'60207'
p1326
I2258
sS'60206'
p1327
I2910
sS'60209'
p1328
I2608
sS'60208'
p1329
I2093
sS'61087'
p1330
I2586
sS'59905'
p1331
I2210
sS'10813'
p1332
I1142
sS'10812'
p1333
I1929
sS'10811'
p1334
I1843
sS'10810'
p1335
I1147
sS'10817'
p1336
I1234
sS'10816'
p1337
I1590
sS'10815'
p1338
I1956
sS'10814'
p1339
I1890
sS'61268'
p1340
I2951
sS'61269'
p1341
I2661
sS'10819'
p1342
I1850
sS'10818'
p1343
I1299
sS'61298'
p1344
I2459
sS'60901'
p1345
I2743
sS'60166'
p1346
I2184
sS'60191'
p1347
I2949
sS'60190'
p1348
I2127
sS'60193'
p1349
I2055
sS'60192'
p1350
I2956
sS'60195'
p1351
I2751
sS'60194'
p1352
I2598
sS'60197'
p1353
I2934
sS'60196'
p1354
I2805
sS'60199'
p1355
I2273
sS'60198'
p1356
I2944
sS'60167'
p1357
I2227
sS'10178'
p1358
I1941
sS'60909'
p1359
I2744
sS'61083'
p1360
I2618
sS'9600'
p1361
I1293
sS'62410'
p1362
I2117
sS'9498'
p1363
I1878
sS'9499'
p1364
I1000
sS'9148'
p1365
I1012
sS'9149'
p1366
I1157
sS'9490'
p1367
I1687
sS'9143'
p1368
I1508
sS'9140'
p1369
I1344
sS'9493'
p1370
I1255
sS'9494'
p1371
I1109
sS'9147'
p1372
I1417
sS'9144'
p1373
I1573
sS'9145'
p1374
I1111
sS'62414'
p1375
I2262
sS'62415'
p1376
I2929
sS'10170'
p1377
I1133
sS'9548'
p1378
I1284
sS'9549'
p1379
I1856
sS'9546'
p1380
I1802
sS'9547'
p1381
I1346
sS'9544'
p1382
I1863
sS'9545'
p1383
I1056
sS'9542'
p1384
I1879
sS'9543'
p1385
I1740
sS'9540'
p1386
I1233
sS'9541'
p1387
I1751
sS'9726'
p1388
I1179
sS'9727'
p1389
I1490
sS'9724'
p1390
I1031
sS'9725'
p1391
I1114
sS'9722'
p1392
I1724
sS'9723'
p1393
I1615
sS'9720'
p1394
I1852
sS'9721'
p1395
I1589
sS'61065'
p1396
I2039
sS'9728'
p1397
I1772
sS'9729'
p1398
I1277
sS'10783'
p1399
I1265
sS'10782'
p1400
I1804
sS'10781'
p1401
I1090
sS'10780'
p1402
I1198
sS'10787'
p1403
I1266
sS'10038'
p1404
I1782
sS'10785'
p1405
I1876
sS'10784'
p1406
I1440
sS'10035'
p1407
I1366
sS'10034'
p1408
I1441
sS'10037'
p1409
I1355
sS'10036'
p1410
I1194
sS'10031'
p1411
I1014
sS'10030'
p1412
I1645
sS'10033'
p1413
I1282
sS'10032'
p1414
I1197
sS'61291'
p1415
I2138
sS'60880'
p1416
I2402
sS'9670'
p1417
I1840
sS'60229'
p1418
I2584
sS'60884'
p1419
I2801
sS'61290'
p1420
I2502
sS'60225'
p1421
I2606
sS'60888'
p1422
I2590
sS'103138'
p1423
I502
sS'103139'
p1424
I724
sS'103134'
p1425
I356
sS'103135'
p1426
I965
sS'103136'
p1427
I730
sS'103137'
p1428
I682
sS'103130'
p1429
I22
sS'103131'
p1430
I304
sS'103132'
p1431
I697
sS'103133'
p1432
I790
sS'61292'
p1433
I2895
sS'61321'
p1434
I2855
sS'60809'
p1435
I2521
sS'103008'
p1436
I152
sS'103009'
p1437
I98
sS'60808'
p1438
I2673
sS'103000'
p1439
I203
sS'103001'
p1440
I953
sS'103002'
p1441
I310
sS'103003'
p1442
I742
sS'103004'
p1443
I159
sS'103005'
p1444
I119
sS'103006'
p1445
I687
sS'103007'
p1446
I459
sS'10771'
p1447
I1081
sS'61096'
p1448
I2060
sS'60171'
p1449
I2732
sS'103314'
p1450
I775
sS'103315'
p1451
I979
sS'103316'
p1452
I35
sS'103317'
p1453
I938
sS'103310'
p1454
I892
sS'103647'
p1455
I491
sS'103312'
p1456
I198
sS'9808'
p1457
I1170
sS'9807'
p1458
I1926
sS'9806'
p1459
I1722
sS'9805'
p1460
I1311
sS'9804'
p1461
I1518
sS'9803'
p1462
I1213
sS'103319'
p1463
I521
sS'9801'
p1464
I1570
sS'9800'
p1465
I1953
sS'103484'
p1466
I909
sS'60170'
p1467
I2338
sS'61453'
p1468
I2988
sS'61452'
p1469
I2533
sS'61451'
p1470
I2045
sS'60989'
p1471
I2059
sS'61109'
p1472
I2387
sS'61108'
p1473
I2224
sS'61455'
p1474
I2833
sS'61454'
p1475
I2694
sS'61105'
p1476
I2155
sS'61104'
p1477
I2311
sS'61107'
p1478
I2444
sS'61106'
p1479
I2162
sS'60986'
p1480
I2807
sS'61100'
p1481
I2256
sS'60984'
p1482
I2013
sS'60985'
p1483
I2320
sS'101648'
p1484
I227
sS'101644'
p1485
I292
sS'101645'
p1486
I97
sS'101646'
p1487
I600
sS'101647'
p1488
I861
sS'101640'
p1489
I268
sS'101641'
p1490
I622
sS'101642'
p1491
I463
sS'101643'
p1492
I257
sS'60858'
p1493
I2686
sS'60859'
p1494
I2804
sS'60850'
p1495
I2345
sS'60851'
p1496
I2602
sS'60852'
p1497
I2251
sS'60853'
p1498
I2429
sS'60854'
p1499
I2386
sS'60855'
p1500
I2977
sS'60856'
p1501
I2122
sS'60857'
p1502
I2777
sS'103260'
p1503
I164
sS'103261'
p1504
I721
sS'103262'
p1505
I983
sS'103263'
p1506
I287
sS'103264'
p1507
I100
sS'103265'
p1508
I163
sS'103266'
p1509
I381
sS'103267'
p1510
I226
sS'103268'
p1511
I65
sS'103269'
p1512
I91
sS'9931'
p1513
I1225
sS'9930'
p1514
I1168
sS'9937'
p1515
I1858
sS'9936'
p1516
I1643
sS'9935'
p1517
I1327
sS'9934'
p1518
I1842
sS'60212'
p1519
I2568
sS'60213'
p1520
I2970
sS'60210'
p1521
I2003
sS'60211'
p1522
I2511
sS'60216'
p1523
I2103
sS'61521'
p1524
I2734
sS'60214'
p1525
I2622
sS'60215'
p1526
I2990
sS'60218'
p1527
I2005
sS'60219'
p1528
I2178
sS'61286'
p1529
I2750
sS'61287'
p1530
I2373
sS'61099'
p1531
I2814
sS'61284'
p1532
I2643
sS'61447'
p1533
I2377
sS'61285'
p1534
I2791
sS'61283'
p1535
I2337
sS'103743'
p1536
I747
sS'10808'
p1537
I1793
sS'10809'
p1538
I1410
sS'103742'
p1539
I538
sS'10804'
p1540
I1502
sS'10805'
p1541
I1331
sS'10806'
p1542
I1308
sS'10807'
p1543
I1159
sS'10128'
p1544
I1597
sS'103037'
p1545
I890
sS'10802'
p1546
I1138
sS'9671'
p1547
I1236
sS'61440'
p1548
I2301
sS'103036'
p1549
I448
sS'61402'
p1550
I2971
sS'103747'
p1551
I924
sS'103746'
p1552
I190
sS'103033'
p1553
I298
sS'103032'
p1554
I220
sS'61441'
p1555
I2871
sS'9678'
p1556
I1825
sS'9679'
p1557
I1596
sS'60182'
p1558
I2051
sS'60183'
p1559
I2544
sS'60180'
p1560
I2260
sS'60181'
p1561
I2600
sS'60186'
p1562
I2713
sS'60187'
p1563
I2657
sS'60184'
p1564
I2061
sS'60185'
p1565
I2443
sS'60188'
p1566
I2862
sS'60189'
p1567
I2403
sS'61442'
p1568
I2867
sS'60979'
p1569
I2095
sS'9155'
p1570
I1205
sS'9154'
p1571
I1051
sS'9157'
p1572
I1276
sS'9156'
p1573
I1604
sS'9151'
p1574
I1762
sS'9150'
p1575
I1200
sS'9153'
p1576
I1478
sS'9152'
p1577
I1621
sS'61266'
p1578
I2151
sS'9159'
p1579
I1987
sS'9158'
p1580
I1273
sS'60981'
p1581
I2726
sS'9489'
p1582
I1634
sS'9488'
p1583
I1769
sS'9483'
p1584
I1902
sS'9482'
p1585
I1934
sS'9481'
p1586
I1453
sS'9480'
p1587
I1512
sS'9487'
p1588
I1765
sS'9486'
p1589
I1193
sS'9485'
p1590
I1800
sS'9484'
p1591
I1533
sS'102838'
p1592
I158
sS'102839'
p1593
I536
sS'102836'
p1594
I557
sS'102837'
p1595
I818
sS'102834'
p1596
I16
sS'102835'
p1597
I550
sS'102832'
p1598
I495
sS'102833'
p1599
I889
sS'102830'
p1600
I876
sS'102831'
p1601
I498
sS'9559'
p1602
I1256
sS'9558'
p1603
I1646
sS'9551'
p1604
I1204
sS'9550'
p1605
I1020
sS'9553'
p1606
I1476
sS'9552'
p1607
I1747
sS'9555'
p1608
I1932
sS'9554'
p1609
I1591
sS'9557'
p1610
I1409
sS'9556'
p1611
I1420
sS'9731'
p1612
I1342
sS'9730'
p1613
I1034
sS'9733'
p1614
I1332
sS'9732'
p1615
I1608
sS'9735'
p1616
I1110
sS'9734'
p1617
I1557
sS'9737'
p1618
I1260
sS'9736'
p1619
I1361
sS'9739'
p1620
I1943
sS'9738'
p1621
I1209
sS'60987'
p1622
I2869
sS'10798'
p1623
I1811
sS'10799'
p1624
I1990
sS'10028'
p1625
I1419
sS'10029'
p1626
I1086
sS'10794'
p1627
I1538
sS'10027'
p1628
I1106
sS'10024'
p1629
I1025
sS'10025'
p1630
I1451
sS'10022'
p1631
I1164
sS'10791'
p1632
I1215
sS'10792'
p1633
I1666
sS'10793'
p1634
I1214
sS'102788'
p1635
I18
sS'102789'
p1636
I347
sS'102780'
p1637
I942
sS'102781'
p1638
I108
sS'102782'
p1639
I543
sS'102783'
p1640
I27
sS'102784'
p1641
I124
sS'102785'
p1642
I772
sS'102786'
p1643
I859
sS'102787'
p1644
I744
sS'60973'
p1645
I2942
sS'61532'
p1646
I2270
sS'103129'
p1647
I992
sS'103128'
p1648
I881
sS'103123'
p1649
I337
sS'103122'
p1650
I149
sS'103121'
p1651
I707
sS'103120'
p1652
I374
sS'103127'
p1653
I608
sS'103126'
p1654
I303
sS'103125'
p1655
I51
sS'103124'
p1656
I207
sS'61533'
p1657
I2349
sS'61534'
p1658
I2361
sS'61303'
p1659
I2660
sS'103017'
p1660
I276
sS'103016'
p1661
I24
sS'103015'
p1662
I162
sS'103014'
p1663
I67
sS'103013'
p1664
I305
sS'103012'
p1665
I576
sS'103011'
p1666
I300
sS'103010'
p1667
I580
sS'60951'
p1668
I2711
sS'103019'
p1669
I960
sS'103018'
p1670
I30
sS'61450'
p1671
I2799
sS'61535'
p1672
I2653
sS'60977'
p1673
I2591
sS'61480'
p1674
I2121
sS'60999'
p1675
I2892
sS'61481'
p1676
I2414
sS'61482'
p1677
I2477
sS'61483'
p1678
I2687
sS'61484'
p1679
I2699
sS'103781'
p1680
I803
sS'103780'
p1681
I439
sS'61486'
p1682
I2829
sS'61487'
p1683
I2043
sS'103303'
p1684
I846
sS'103302'
p1685
I466
sS'103653'
p1686
I140
sS'103300'
p1687
I888
sS'103307'
p1688
I599
sS'103306'
p1689
I633
sS'103657'
p1690
I898
sS'103304'
p1691
I497
sS'103659'
p1692
I308
sS'103658'
p1693
I626
sS'103309'
p1694
I84
sS'103308'
p1695
I481
sS'9836'
p1696
I1174
sS'9837'
p1697
I1360
sS'9834'
p1698
I1059
sS'9835'
p1699
I1206
sS'103493'
p1700
I884
sS'103492'
p1701
I53
sS'103491'
p1702
I537
sS'103083'
p1703
I302
sS'103497'
p1704
I630
sS'103496'
p1705
I714
sS'103495'
p1706
I434
sS'103494'
p1707
I484
sS'103499'
p1708
I638
sS'103498'
p1709
I773
sS'61448'
p1710
I2272
sS'103738'
p1711
I571
sS'61118'
p1712
I2616
sS'61119'
p1713
I2915
sS'61116'
p1714
I2409
sS'61445'
p1715
I2619
sS'61114'
p1716
I2305
sS'103087'
p1717
I351
sS'61112'
p1718
I2092
sS'61113'
p1719
I2031
sS'61110'
p1720
I2375
sS'61443'
p1721
I2420
sS'103736'
p1722
I76
sS'101659'
p1723
I731
sS'101658'
p1724
I947
sS'103737'
p1725
I413
sS'101653'
p1726
I664
sS'101652'
p1727
I645
sS'101651'
p1728
I444
sS'101650'
p1729
I784
sS'101657'
p1730
I533
sS'101656'
p1731
I280
sS'101655'
p1732
I369
sS'101654'
p1733
I955
sS'9906'
p1734
I1529
sS'9907'
p1735
I1736
sS'9904'
p1736
I1977
sS'9905'
p1737
I1729
sS'9902'
p1738
I1907
sS'9903'
p1739
I1664
sS'9900'
p1740
I1191
sS'9901'
p1741
I1525
sS'61314'
p1742
I2870
sS'9908'
p1743
I1998
sS'9909'
p1744
I1244
sS'61062'
p1745
I2134
sS'61063'
p1746
I2133
sS'61060'
p1747
I2880
sS'61061'
p1748
I2991
sS'61066'
p1749
I2767
sS'61316'
p1750
I2180
sS'103279'
p1751
I144
sS'103278'
p1752
I129
sS'61068'
p1753
I2889
sS'61069'
p1754
I2153
sS'103270'
p1755
I588
sS'60883'
p1756
I2391
sS'60882'
p1757
I2026
sS'60881'
p1758
I2078
sS'61400'
p1759
I2342
sS'60887'
p1760
I2560
sS'60886'
p1761
I2558
sS'60885'
p1762
I2244
sS'60228'
p1763
I2663
sS'60227'
p1764
I2480
sS'60226'
p1765
I2787
sS'60889'
p1766
I2027
sS'60224'
p1767
I2075
sS'60223'
p1768
I2898
sS'60222'
p1769
I2025
sS'60221'
p1770
I2206
sS'60220'
p1771
I2150
sS'61465'
p1772
I2541
sS'61401'
p1773
I2773
sS'61459'
p1774
I2696
sS'61288'
p1775
I2327
sS'61289'
p1776
I2035
sS'10871'
p1777
I1195
sS'10870'
p1778
I1357
sS'10873'
p1779
I1933
sS'10872'
p1780
I1927
sS'61282'
p1781
I2145
sS'10874'
p1782
I1120
sS'61280'
p1783
I2841
sS'61281'
p1784
I2463
sS'61502'
p1785
I2853
sS'60995'
p1786
I2228
sS'60994'
p1787
I2119
sS'61458'
p1788
I2755
sS'60997'
p1789
I2612
sS'61469'
p1790
I2123
sS'61403'
p1791
I2168
sS'10905'
p1792
I1786
sS'10904'
p1793
I1023
sS'10907'
p1794
I1759
sS'10906'
p1795
I1757
sS'61301'
p1796
I2994
sS'10903'
p1797
I1565
sS'61404'
p1798
I2702
sS'10909'
p1799
I1444
sS'10908'
p1800
I1938
sS'10650'
p1801
I1146
sS'60155'
p1802
I2143
sS'60154'
p1803
I2335
sS'60157'
p1804
I2057
sS'60156'
p1805
I2254
sS'60151'
p1806
I2650
sS'60153'
p1807
I2087
sS'60152'
p1808
I2526
sS'61405'
p1809
I2973
sS'60159'
p1810
I2835
sS'60158'
p1811
I2506
sS'60993'
p1812
I2523
sS'102829'
p1813
I4
sS'102828'
p1814
I184
sS'102825'
p1815
I542
sS'102824'
p1816
I605
sS'102827'
p1817
I454
sS'102826'
p1818
I494
sS'102821'
p1819
I978
sS'102820'
p1820
I131
sS'102823'
p1821
I930
sS'102822'
p1822
I612
sS'61406'
p1823
I2561
sS'61271'
p1824
I2873
sS'60992'
p1825
I2872
sS'62375'
p1826
I2704
sS'62374'
p1827
I2419
sS'62373'
p1828
I2436
sS'102797'
p1829
I270
sS'102796'
p1830
I116
sS'102795'
p1831
I535
sS'102794'
p1832
I154
sS'102793'
p1833
I849
sS'9587'
p1834
I1033
sS'102791'
p1835
I654
sS'102790'
p1836
I966
sS'10013'
p1837
I1325
sS'10012'
p1838
I1321
sS'10011'
p1839
I1363
sS'10010'
p1840
I1217
sS'10017'
p1841
I1839
sS'10016'
p1842
I1519
sS'102799'
p1843
I112
sS'102798'
p1844
I816
sS'62474'
p1845
I2503
sS'62475'
p1846
I2985
sS'62476'
p1847
I2567
sS'61409'
p1848
I2649
sS'62477'
p1849
I2535
sS'61004'
p1850
I2476
sS'60948'
p1851
I2326
sS'61005'
p1852
I2536
sS'62481'
p1853
I2559
sS'62480'
p1854
I2084
sS'61006'
p1855
I2146
sS'61007'
p1856
I2794
sS'60996'
p1857
I2539
sS'61000'
p1858
I2845
sS'9882'
p1859
I1922
sS'60899'
p1860
I2507
sS'61169'
p1861
I2625
sS'61168'
p1862
I2437
sS'62150'
p1863
I2766
sS'62395'
p1864
I2046
sS'9582'
p1865
I1763
sS'62397'
p1866
I2662
sS'62396'
p1867
I2014
sS'62391'
p1868
I2448
sS'62390'
p1869
I2012
sS'62393'
p1870
I2431
sS'9583'
p1871
I1347
sS'9924'
p1872
I1459
sS'62399'
p1873
I2282
sS'10019'
p1874
I1351
sS'9925'
p1875
I1371
sS'10018'
p1876
I1372
sS'61161'
p1877
I2470
sS'9586'
p1878
I1496
sS'61160'
p1879
I2038
sS'102792'
p1880
I833
sS'9584'
p1881
I1534
sS'9585'
p1882
I1588
sS'103062'
p1883
I376
sS'103063'
p1884
I148
sS'103060'
p1885
I291
sS'103061'
p1886
I297
sS'103066'
p1887
I886
sS'103067'
p1888
I946
sS'103064'
p1889
I809
sS'103065'
p1890
I86
sS'103068'
p1891
I693
sS'103069'
p1892
I860
sS'9588'
p1893
I1819
sS'61210'
p1894
I2636
sS'9589'
p1895
I1324
sS'61279'
p1896
I2124
sS'61212'
p1897
I2423
sS'10015'
p1898
I1833
sS'10014'
p1899
I1845
sS'9142'
p1900
I1781
sS'9825'
p1901
I1620
sS'9824'
p1902
I1093
sS'9827'
p1903
I1046
sS'9826'
p1904
I1783
sS'9821'
p1905
I1680
sS'9820'
p1906
I1032
sS'9823'
p1907
I1994
sS'9822'
p1908
I1551
sS'9829'
p1909
I1423
sS'9828'
p1910
I1123
sS'103668'
p1911
I188
sS'103669'
p1912
I189
sS'62455'
p1913
I2430
sS'103664'
p1914
I12
sS'103665'
p1915
I58
sS'103666'
p1916
I812
sS'103667'
p1917
I980
sS'103660'
p1918
I655
sS'103661'
p1919
I437
sS'103662'
p1920
I470
sS'103663'
p1921
I680
sS'103460'
p1922
I789
sS'103461'
p1923
I566
sS'103686'
p1924
I307
sS'103687'
p1925
I698
sS'103684'
p1926
I349
sS'103685'
p1927
I556
sS'103682'
p1928
I866
sS'103683'
p1929
I617
sS'103680'
p1930
I317
sS'103681'
p1931
I335
sS'61123'
p1932
I2091
sS'61122'
p1933
I2358
sS'61433'
p1934
I2323
sS'61432'
p1935
I2646
sS'61435'
p1936
I2086
sS'61126'
p1937
I2080
sS'103688'
p1938
I900
sS'103689'
p1939
I621
sS'60890'
p1940
I2183
sS'9911'
p1941
I1773
sS'9910'
p1942
I1671
sS'9913'
p1943
I1499
sS'9912'
p1944
I1026
sS'9915'
p1945
I1145
sS'9914'
p1946
I1648
sS'9917'
p1947
I1279
sS'9916'
p1948
I1535
sS'9919'
p1949
I1066
sS'9918'
p1950
I1717
sS'103208'
p1951
I326
sS'103209'
p1952
I854
sS'10786'
p1953
I1848
sS'61058'
p1954
I2782
sS'103202'
p1955
I379
sS'103203'
p1956
I95
sS'103200'
p1957
I575
sS'103201'
p1958
I643
sS'103206'
p1959
I114
sS'103207'
p1960
I584
sS'103204'
p1961
I525
sS'103205'
p1962
I963
sS'61545'
p1963
I2369
sS'60239'
p1964
I2032
sS'61547'
p1965
I2106
sS'61546'
p1966
I2304
sS'60898'
p1967
I2771
sS'61540'
p1968
I2111
sS'61543'
p1969
I2107
sS'61542'
p1970
I2757
sS'60894'
p1971
I2727
sS'60895'
p1972
I2018
sS'60232'
p1973
I2275
sS'60897'
p1974
I2171
sS'61549'
p1975
I2048
sS'60235'
p1976
I2379
sS'60892'
p1977
I2475
sS'60237'
p1978
I2467
sS'103516'
p1979
I985
sS'103517'
p1980
I681
sS'103514'
p1981
I313
sS'10869'
p1982
I1177
sS'103512'
p1983
I548
sS'103513'
p1984
I718
sS'103510'
p1985
I234
sS'103511'
p1986
I577
sS'10862'
p1987
I1649
sS'10863'
p1988
I1982
sS'10866'
p1989
I1103
sS'10867'
p1990
I1986
sS'103518'
p1991
I514
sS'10865'
p1992
I1278
sS'61416'
p1993
I2312
sS'61260'
p1994
I2671
sS'61261'
p1995
I2083
sS'61262'
p1996
I2632
sS'101680'
p1997
I952
sS'101681'
p1998
I807
sS'61263'
p1999
I2846
sS'10910'
p2000
I1460
sS'10911'
p2001
I1735
sS'61264'
p2002
I2786
sS'61265'
p2003
I2859
sS'9137'
p2004
I1677
sS'9136'
p2005
I1696
sS'10648'
p2006
I1315
sS'10649'
p2007
I1661
sS'10646'
p2008
I1457
sS'10647'
p2009
I1616
sS'10644'
p2010
I1130
sS'9138'
p2011
I1794
sS'10642'
p2012
I1196
sS'10643'
p2013
I1119
sS'10640'
p2014
I1439
sS'10641'
p2015
I1730
sS'61529'
p2016
I2992
sS'102818'
p2017
I629
sS'102819'
p2018
I657
sS'102810'
p2019
I93
sS'102811'
p2020
I56
sS'102812'
p2021
I215
sS'102813'
p2022
I96
sS'102814'
p2023
I628
sS'102815'
p2024
I787
sS'102816'
p2025
I367
sS'102817'
p2026
I982
sS'61528'
p2027
I2885
sS'10004'
p2028
I1349
sS'10005'
p2029
I1657
sS'10006'
p2030
I1939
sS'10007'
p2031
I1039
sS'10000'
p2032
I1306
sS'10001'
p2033
I1628
sS'10002'
p2034
I1957
sS'10003'
p2035
I1755
sS'10008'
p2036
I1402
sS'10009'
p2037
I1144
sS'9599'
p2038
I1580
sS'9598'
p2039
I1873
sS'9595'
p2040
I1038
sS'9594'
p2041
I1436
sS'9597'
p2042
I1805
sS'9596'
p2043
I1790
sS'9591'
p2044
I1501
sS'9590'
p2045
I1679
sS'9593'
p2046
I1443
sS'9592'
p2047
I1812
sS'61541'
p2048
I2908
sS'61411'
p2049
I2595
sS'103449'
p2050
I650
sS'61410'
p2051
I2498
sS'62412'
p2052
I2263
sS'103440'
p2053
I720
sS'62708'
p2054
I2802
sS'62709'
p2055
I2587
sS'103193'
p2056
I958
sS'103190'
p2057
I736
sS'62413'
p2058
I2518
sS'103191'
p2059
I534
sS'61059'
p2060
I2585
sS'103196'
p2061
I523
sS'103197'
p2062
I817
sS'103446'
p2063
I701
sS'103447'
p2064
I690
sS'61384'
p2065
I2940
sS'60103'
p2066
I2442
sS'61383'
p2067
I2913
sS'62411'
p2068
I2852
sS'62386'
p2069
I2418
sS'62387'
p2070
I2582
sS'62385'
p2071
I2688
sS'62388'
p2072
I2818
sS'62389'
p2073
I2899
sS'62416'
p2074
I2982
sS'103071'
p2075
I793
sS'103070'
p2076
I505
sS'103073'
p2077
I725
sS'103072'
p2078
I831
sS'103075'
p2079
I191
sS'103074'
p2080
I973
sS'103077'
p2081
I883
sS'103076'
p2082
I316
sS'103079'
p2083
I830
sS'103078'
p2084
I991
sS'62417'
p2085
I2610
sS'61388'
p2086
I2875
sS'10026'
p2087
I1857
sS'9850'
p2088
I1935
sS'9851'
p2089
I1553
sS'9852'
p2090
I1874
sS'9853'
p2091
I1412
sS'9854'
p2092
I1575
sS'9855'
p2093
I1071
sS'9856'
p2094
I1965
sS'9857'
p2095
I1262
sS'9858'
p2096
I1692
sS'9859'
p2097
I1822
sS'103679'
p2098
I504
sS'103678'
p2099
I959
sS'103673'
p2100
I863
sS'103672'
p2101
I506
sS'103671'
p2102
I758
sS'103670'
p2103
I171
sS'103677'
p2104
I14
sS'103676'
p2105
I615
sS'103675'
p2106
I842
sS'103674'
p2107
I130
sS'61548'
p2108
I2472
sS'103475'
p2109
I427
sS'103474'
p2110
I160
sS'61476'
p2111
I2795
sS'103695'
p2112
I355
sS'103694'
p2113
I237
sS'103697'
p2114
I737
sS'103696'
p2115
I478
sS'103691'
p2116
I120
sS'103690'
p2117
I101
sS'103693'
p2118
I204
sS'103692'
p2119
I49
sS'61422'
p2120
I2248
sS'61423'
p2121
I2017
sS'61420'
p2122
I2914
sS'61421'
p2123
I2221
sS'103699'
p2124
I217
sS'103698'
p2125
I741
sS'61424'
p2126
I2987
sS'61425'
p2127
I2217
sS'61471'
p2128
I2947
sS'103219'
p2129
I767
sS'103218'
p2130
I72
sS'103211'
p2131
I387
sS'103210'
p2132
I869
sS'103213'
p2133
I937
sS'103212'
p2134
I826
sS'103215'
p2135
I776
sS'103214'
p2136
I294
sS'103217'
p2137
I266
sS'103216'
p2138
I520
sS'61556'
p2139
I2537
sS'61557'
p2140
I2669
sS'61554'
p2141
I2705
sS'61555'
p2142
I2381
sS'61552'
p2143
I2540
sS'61053'
p2144
I2332
sS'61550'
p2145
I2633
sS'61551'
p2146
I2893
sS'62419'
p2147
I2438
sS'61559'
p2148
I2194
sS'10857'
p2149
I1094
sS'10856'
p2150
I1140
sS'10855'
p2151
I1915
sS'10854'
p2152
I1820
sS'10853'
p2153
I1433
sS'10852'
p2154
I1176
sS'10851'
p2155
I1318
sS'10850'
p2156
I1163
sS'10859'
p2157
I1021
sS'10858'
p2158
I1267
sS'103505'
p2159
I763
sS'103504'
p2160
I445
sS'103507'
p2161
I879
sS'103506'
p2162
I762
sS'103501'
p2163
I329
sS'103500'
p2164
I662
sS'103503'
p2165
I865
sS'103502'
p2166
I371
sS'60955'
p2167
I2948
sS'60954'
p2168
I2679
sS'60957'
p2169
I2316
sS'60956'
p2170
I2838
sS'103509'
p2171
I161
sS'103508'
p2172
I214
sS'60953'
p2173
I2023
sS'60952'
p2174
I2825
sS'10043'
p2175
I1758
sS'61334'
p2176
I2167
sS'62394'
p2177
I2842
sS'10732'
p2178
I1227
sS'61335'
p2179
I2102
sS'10733'
p2180
I1774
sS'10046'
p2181
I1270
sS'10731'
p2182
I1494
sS'61338'
p2183
I2094
sS'61339'
p2184
I2569
sS'61079'
p2185
I2255
sS'62392'
p2186
I2433
sS'9171'
p2187
I1912
sS'9458'
p2188
I1594
sS'9459'
p2189
I1672
sS'9454'
p2190
I1035
sS'9455'
p2191
I1509
sS'9456'
p2192
I1272
sS'9457'
p2193
I1924
sS'9450'
p2194
I1968
sS'9451'
p2195
I1940
sS'9452'
p2196
I1364
sS'9453'
p2197
I1523
sS'102807'
p2198
I250
sS'102806'
p2199
I529
sS'102805'
p2200
I522
sS'9838'
p2201
I1151
sS'102803'
p2202
I180
sS'102802'
p2203
I786
sS'102801'
p2204
I672
sS'102800'
p2205
I410
sS'60179'
p2206
I2321
sS'60178'
p2207
I2291
sS'9492'
p2208
I1984
sS'102809'
p2209
I31
sS'102808'
p2210
I327
sS'9141'
p2211
I1392
sS'9146'
p2212
I1809
sS'9495'
p2213
I1704
sS'9496'
p2214
I1962
sS'9497'
p2215
I1753
sS'10071'
p2216
I1870
sS'10070'
p2217
I1224
sS'10073'
p2218
I1637
sS'10072'
p2219
I1593
sS'10075'
p2220
I1853
sS'10074'
p2221
I1248
sS'10076'
p2222
I1721
sS'10079'
p2223
I1841
sS'10078'
p2224
I1506
sS'9536'
p2225
I1947
sS'60779'
p2226
I2500
sS'60778'
p2227
I2453
sS'60771'
p2228
I2441
sS'60770'
p2229
I2564
sS'60773'
p2230
I2809
sS'60772'
p2231
I2147
sS'60775'
p2232
I2207
sS'60774'
p2233
I2482
sS'60777'
p2234
I2313
sS'9698'
p2235
I1517
sS'9699'
p2236
I1875
sS'9696'
p2237
I1528
sS'9697'
p2238
I1286
sS'9694'
p2239
I1599
sS'9695'
p2240
I1569
sS'9692'
p2241
I1896
sS'9693'
p2242
I1707
sS'9690'
p2243
I1925
sS'9691'
p2244
I1577
sS'9674'
p2245
I1006
sS'9675'
p2246
I1040
sS'9676'
p2247
I1710
sS'9677'
p2248
I1352
sS'10109'
p2249
I1618
sS'10108'
p2250
I1281
sS'9672'
p2251
I1343
sS'9673'
p2252
I1161
sS'10105'
p2253
I1900
sS'10104'
p2254
I1630
sS'10107'
p2255
I1104
sS'10106'
p2256
I1771
sS'10101'
p2257
I1688
sS'10100'
p2258
I1232
sS'10103'
p2259
I1899
sS'10102'
p2260
I1770
sS'9465'
p2261
I1598
sS'61098'
p2262
I2516
sS'10603'
p2263
I1973
sS'9467'
p2264
I1134
sS'62401'
p2265
I2142
sS'10601'
p2266
I1916
sS'10606'
p2267
I1180
sS'9460'
p2268
I1543
sS'9463'
p2269
I1951
sS'9462'
p2270
I1885
sS'60863'
p2271
I2062
sS'62400'
p2272
I2368
sS'10039'
p2273
I1143
sS'59849'
p2274
I2932
sS'59848'
p2275
I2576
sS'103048'
p2276
I322
sS'103049'
p2277
I999
sS'103044'
p2278
I671
sS'103045'
p2279
I904
sS'103046'
p2280
I895
sS'103047'
p2281
I366
sS'103040'
p2282
I256
sS'103041'
p2283
I700
sS'103042'
p2284
I695
sS'103043'
p2285
I458
sS'61417'
p2286
I2156
sS'61140'
p2287
I2068
sS'62405'
p2288
I2193
sS'61415'
p2289
I2289
sS'61414'
p2290
I2850
sS'61145'
p2291
I2505
sS'61144'
p2292
I2299
sS'61147'
p2293
I2290
sS'62404'
p2294
I2308
sS'60949'
p2295
I2346
sS'59846'
p2296
I2074
sS'9843'
p2297
I1720
sS'9842'
p2298
I1303
sS'9841'
p2299
I1304
sS'9840'
p2300
I1976
sS'9847'
p2301
I1416
sS'9846'
p2302
I1894
sS'9845'
p2303
I1779
sS'9844'
p2304
I1641
sS'9849'
p2305
I1617
sS'9848'
p2306
I1629
sS'62407'
p2307
I2172
sS'103448'
p2308
I251
sS'103145'
p2309
I301
sS'103198'
p2310
I29
sS'103199'
p2311
I541
sS'61419'
p2312
I2681
sS'103412'
p2313
I364
sS'103192'
p2314
I92
sS'103441'
p2315
I281
sS'103442'
p2316
I518
sS'103443'
p2317
I240
sS'103444'
p2318
I94
sS'103445'
p2319
I102
sS'103194'
p2320
I492
sS'103195'
p2321
I111
sS'61387'
p2322
I2866
sS'61386'
p2323
I2382
sS'61385'
p2324
I2144
sS'103410'
p2325
I345
sS'62406'
p2326
I2139
sS'61382'
p2327
I2300
sS'61381'
p2328
I2715
sS'61380'
p2329
I2364
sS'103417'
p2330
I295
sS'61389'
p2331
I2578
sS'103140'
p2332
I997
sS'103415'
p2333
I512
sS'103414'
p2334
I798
sS'10789'
p2335
I1913
sS'103224'
p2336
I779
sS'103225'
p2337
I956
sS'103226'
p2338
I801
sS'103227'
p2339
I394
sS'103220'
p2340
I32
sS'103221'
p2341
I28
sS'103222'
p2342
I64
sS'103223'
p2343
I483
sS'62452'
p2344
I2226
sS'103228'
p2345
I903
sS'103229'
p2346
I401
sS'62453'
p2347
I2072
sS'62450'
p2348
I2115
sS'62448'
p2349
I2690
sS'62451'
p2350
I2783
sS'61563'
p2351
I2554
sS'61562'
p2352
I2322
sS'61561'
p2353
I2995
sS'61560'
p2354
I2245
sS'61567'
p2355
I2874
sS'61566'
p2356
I2580
sS'61565'
p2357
I2740
sS'61564'
p2358
I2604
sS'61407'
p2359
I2877
sS'61569'
p2360
I2583
sS'61568'
p2361
I2351
sS'61093'
p2362
I2371
sS'61092'
p2363
I2980
sS'61091'
p2364
I2571
sS'61090'
p2365
I2149
sS'101598'
p2366
I845
sS'101599'
p2367
I567
sS'61095'
p2368
I2455
sS'61094'
p2369
I2621
sS'101594'
p2370
I331
sS'101595'
p2371
I486
sS'101596'
p2372
I711
sS'101597'
p2373
I788
sS'101590'
p2374
I676
sS'101591'
p2375
I565
sS'101592'
p2376
I624
sS'101593'
p2377
I921
sS'10840'
p2378
I1060
sS'10841'
p2379
I1047
sS'10842'
p2380
I1479
sS'10843'
p2381
I1846
sS'10844'
p2382
I1212
sS'10845'
p2383
I1172
sS'10846'
p2384
I1699
sS'10847'
p2385
I1010
sS'10848'
p2386
I1760
sS'10849'
p2387
I1384
sS'62398'
p2388
I2993
sS'103530'
p2389
I551
sS'103531'
p2390
I137
sS'103532'
p2391
I233
sS'61142'
p2392
I2404
sS'61413'
p2393
I2082
sS'61412'
p2394
I2079
sS'103536'
p2395
I511
sS'61146'
p2396
I2201
sS'61149'
p2397
I2593
sS'61148'
p2398
I2159
sS'60944'
p2399
I2832
sS'60945'
p2400
I2265
sS'60942'
p2401
I2894
sS'60943'
p2402
I2385
sS'60940'
p2403
I2209
sS'61418'
p2404
I2214
sS'61444'
p2405
I2742
sS'10938'
p2406
I1122
sS'10939'
p2407
I1992
sS'10934'
p2408
I1930
sS'10935'
p2409
I1653
sS'10936'
p2410
I1482
sS'10937'
p2411
I1350
sS'10933'
p2412
I1684
sS'61179'
p2413
I2959
sS'102872'
p2414
I663
sS'102873'
p2415
I138
sS'102870'
p2416
I813
sS'102871'
p2417
I79
sS'102876'
p2418
I986
sS'102877'
p2419
I333
sS'102874'
p2420
I902
sS'102875'
p2421
I396
sS'60164'
p2422
I2628
sS'60165'
p2423
I2212
sS'102878'
p2424
I795
sS'102879'
p2425
I194
sS'60160'
p2426
I2720
sS'60161'
p2427
I2674
sS'60162'
p2428
I2350
sS'60163'
p2429
I2421
sS'101576'
p2430
I230
sS'101577'
p2431
I857
sS'101574'
p2432
I651
sS'101575'
p2433
I472
sS'101572'
p2434
I8
sS'101573'
p2435
I923
sS'101570'
p2436
I848
sS'101571'
p2437
I746
sS'101578'
p2438
I175
sS'101579'
p2439
I929
sS'10062'
p2440
I1651
sS'10063'
p2441
I1052
sS'10060'
p2442
I1312
sS'10061'
p2443
I1731
sS'10066'
p2444
I1471
sS'10067'
p2445
I1552
sS'10064'
p2446
I1475
sS'10065'
p2447
I1107
sS'10068'
p2448
I1305
sS'10069'
p2449
I1737
sS'60946'
p2450
I2868
sS'102908'
p2451
I342
sS'102909'
p2452
I485
sS'102906'
p2453
I949
sS'102907'
p2454
I993
sS'102904'
p2455
I363
sS'102905'
p2456
I425
sS'102902'
p2457
I910
sS'102903'
p2458
I726
sS'102900'
p2459
I325
sS'102901'
p2460
I951
sS'10664'
p2461
I1246
sS'9688'
p2462
I1387
sS'10660'
p2463
I1886
sS'10661'
p2464
I1252
sS'10662'
p2465
I1880
sS'10663'
p2466
I1545
sS'9681'
p2467
I1469
sS'9680'
p2468
I1118
sS'9683'
p2469
I1548
sS'9682'
p2470
I1654
sS'9685'
p2471
I1830
sS'9684'
p2472
I1636
sS'9687'
p2473
I1186
sS'9686'
p2474
I1895
sS'61125'
p2475
I2963
sS'9667'
p2476
I1064
sS'9666'
p2477
I1605
sS'9665'
p2478
I1381
sS'9664'
p2479
I1888
sS'9663'
p2480
I1385
sS'9662'
p2481
I1609
sS'9661'
p2482
I1228
sS'9660'
p2483
I1080
sS'10116'
p2484
I1156
sS'10117'
p2485
I1091
sS'10114'
p2486
I1796
sS'10115'
p2487
I1481
sS'10112'
p2488
I1477
sS'10113'
p2489
I1587
sS'10110'
p2490
I1337
sS'9668'
p2491
I1069
sS'61124'
p2492
I2772
sS'10598'
p2493
I1993
sS'10599'
p2494
I1713
sS'62614'
p2495
I2250
sS'62615'
p2496
I2981
sS'62616'
p2497
I2924
sS'61446'
p2498
I2366
sS'60947'
p2499
I2837
sS'61553'
p2500
I2902
sS'61121'
p2501
I2964
sS'59913'
p2502
I2774
sS'103059'
p2503
I756
sS'103058'
p2504
I421
sS'103053'
p2505
I447
sS'103052'
p2506
I360
sS'103051'
p2507
I509
sS'103050'
p2508
I263
sS'103057'
p2509
I47
sS'103056'
p2510
I602
sS'103055'
p2511
I560
sS'103054'
p2512
I402
sS'60980'
p2513
I2486
sS'60168'
p2514
I2460
sS'61049'
p2515
I2811
sS'60169'
p2516
I2278
sS'61439'
p2517
I2781
sS'61438'
p2518
I2725
sS'61129'
p2519
I2036
sS'61128'
p2520
I2397
sS'9878'
p2521
I1063
sS'9879'
p2522
I1683
sS'9876'
p2523
I1739
sS'9877'
p2524
I1719
sS'9874'
p2525
I1450
sS'9875'
p2526
I1383
sS'9872'
p2527
I1397
sS'9873'
p2528
I1743
sS'9870'
p2529
I1555
sS'9871'
p2530
I1018
sS'103457'
p2531
I822
sS'103456'
p2532
I609
sS'103455'
p2533
I74
sS'103454'
p2534
I611
sS'103453'
p2535
I145
sS'103452'
p2536
I229
sS'103451'
p2537
I832
sS'103450'
p2538
I572
sS'103459'
p2539
I5
sS'103458'
p2540
I422
sS'103189'
p2541
I755
sS'103188'
p2542
I336
sS'61430'
p2543
I2432
sS'103181'
p2544
I750
sS'103180'
p2545
I820
sS'103183'
p2546
I391
sS'103182'
p2547
I971
sS'103185'
p2548
I585
sS'103184'
p2549
I69
sS'103187'
p2550
I710
sS'103186'
p2551
I792
sS'61390'
p2552
I2352
sS'61391'
p2553
I2691
sS'61392'
p2554
I2065
sS'61393'
p2555
I2579
sS'61394'
p2556
I2492
sS'61395'
p2557
I2528
sS'61396'
p2558
I2785
sS'61397'
p2559
I2449
sS'61398'
p2560
I2701
sS'61127'
p2561
I2131
sS'61434'
p2562
I2527
sS'61120'
p2563
I2770
sS'61437'
p2564
I2950
sS'61436'
p2565
I2735
sS'103233'
p2566
I668
sS'103232'
p2567
I267
sS'103231'
p2568
I733
sS'103230'
p2569
I897
sS'103237'
p2570
I751
sS'103236'
p2571
I555
sS'103235'
p2572
I618
sS'103234'
p2573
I438
sS'103239'
p2574
I685
sS'103238'
p2575
I994
sS'101589'
p2576
I155
sS'101588'
p2577
I968
sS'61088'
p2578
I2287
sS'61089'
p2579
I2551
sS'101583'
p2580
I430
sS'101582'
p2581
I513
sS'101581'
p2582
I462
sS'101580'
p2583
I748
sS'101587'
p2584
I61
sS'101586'
p2585
I967
sS'101585'
p2586
I867
sS'101584'
p2587
I249
sS'61164'
p2588
I2723
sS'10724'
p2589
I1777
sS'9894'
p2590
I1294
sS'9895'
p2591
I1105
sS'9896'
p2592
I1756
sS'9897'
p2593
I1082
sS'9890'
p2594
I1817
sS'9891'
p2595
I1564
sS'103529'
p2596
I17
sS'103528'
p2597
I42
sS'103527'
p2598
I841
sS'103526'
p2599
I684
sS'103525'
p2600
I306
sS'103524'
p2601
I713
sS'9898'
p2602
I1008
sS'9899'
p2603
I1359
sS'103521'
p2604
I666
sS'103520'
p2605
I50
sS'103723'
p2606
I186
sS'103722'
p2607
I375
sS'10941'
p2608
I1391
sS'10940'
p2609
I1981
sS'10943'
p2610
I1456
sS'10942'
p2611
I1603
sS'10945'
p2612
I1979
sS'10944'
p2613
I1116
sS'9478'
p2614
I1220
sS'9479'
p2615
I1102
sS'9472'
p2616
I1716
sS'9473'
p2617
I1766
sS'9470'
p2618
I1049
sS'9471'
p2619
I1376
sS'9476'
p2620
I1470
sS'9477'
p2621
I1022
sS'9474'
p2622
I1791
sS'9475'
p2623
I1398
sS'102861'
p2624
I694
sS'102860'
p2625
I436
sS'102863'
p2626
I829
sS'102862'
p2627
I139
sS'102865'
p2628
I659
sS'102864'
p2629
I674
sS'102867'
p2630
I480
sS'102866'
p2631
I357
sS'102869'
p2632
I516
sS'102868'
p2633
I361
sS'61356'
p2634
I2024
sS'101565'
p2635
I221
sS'101564'
p2636
I553
sS'101567'
p2637
I153
sS'101566'
p2638
I384
sS'101561'
p2639
I686
sS'101560'
p2640
I975
sS'101563'
p2641
I232
sS'101562'
p2642
I507
sS'61350'
p2643
I2271
sS'101569'
p2644
I839
sS'101568'
p2645
I689
sS'10729'
p2646
I1748
sS'10728'
p2647
I1640
sS'10059'
p2648
I1043
sS'10058'
p2649
I1579
sS'10057'
p2650
I1241
sS'10056'
p2651
I1768
sS'10055'
p2652
I1950
sS'10054'
p2653
I1088
sS'10053'
p2654
I1167
sS'10052'
p2655
I1258
sS'10723'
p2656
I1495
sS'10050'
p2657
I1370
sS'61057'
p2658
I2126
sS'61056'
p2659
I2747
sS'10725'
p2660
I1062
sS'61055'
p2661
I2570
sS'61115'
p2662
I2016
sS'61054'
p2663
I2222
sS'102919'
p2664
I771
sS'102918'
p2665
I604
sS'102915'
p2666
I423
sS'102914'
p2667
I471
sS'102917'
p2668
I127
sS'102916'
p2669
I562
sS'102911'
p2670
I732
sS'102910'
p2671
I825
sS'102913'
p2672
I147
sS'102912'
p2673
I109
sS'10611'
p2674
I1638
sS'10610'
p2675
I1767
sS'10613'
p2676
I1859
sS'10612'
p2677
I1673
sS'10615'
p2678
I1711
sS'10614'
p2679
I1230
sS'10617'
p2680
I1408
sS'10616'
p2681
I1642
sS'10619'
p2682
I1150
sS'10618'
p2683
I1113
sS'61050'
p2684
I2719
sS'60238'
p2685
I2652
sS'61544'
p2686
I2406
sS'59874'
p2687
I2626
sS'59872'
p2688
I2682
sS'59873'
p2689
I2488
sS'59870'
p2690
I2114
sS'59871'
p2691
I2161
sS'9652'
p2692
I1075
sS'9653'
p2693
I1096
sS'10129'
p2694
I1013
sS'9651'
p2695
I1300
sS'9656'
p2696
I1115
sS'9657'
p2697
I1070
sS'9654'
p2698
I1726
sS'9655'
p2699
I1353
sS'10123'
p2700
I1611
sS'10122'
p2701
I1333
sS'9658'
p2702
I1125
sS'9659'
p2703
I1216
sS'10127'
p2704
I1667
sS'10126'
p2705
I1572
sS'10125'
p2706
I1788
sS'10124'
p2707
I1368
sS'10692'
p2708
I1963
sS'9160'
p2709
I1806
sS'9161'
p2710
I1891
sS'9780'
p2711
I1445
sS'9781'
p2712
I1259
sS'9782'
p2713
I1136
sS'9783'
p2714
I1851
sS'9784'
p2715
I1396
sS'9785'
p2716
I1626
sS'9786'
p2717
I1520
sS'9787'
p2718
I1658
sS'9788'
p2719
I1395
sS'9789'
p2720
I1083
sS'9163'
p2721
I1527
sS'60896'
p2722
I2574
sS'60233'
p2723
I2821
sS'9819'
p2724
I1576
sS'60891'
p2725
I2457
sS'60236'
p2726
I2858
sS'60893'
p2727
I2588
sS'102735'
p2728
I442
sS'102734'
p2729
I428
sS'102737'
p2730
I62
sS'102736'
p2731
I728
sS'102733'
p2732
I392
sS'102732'
p2733
I646
sS'102739'
p2734
I71
sS'102738'
p2735
I43
sS'59906'
p2736
I2543
sS'59907'
p2737
I2318
sS'59904'
p2738
I2840
sS'61310'
p2739
I2054
sS'59908'
p2740
I2931
sS'59909'
p2741
I2517
sS'9689'
p2742
I1004
sS'61312'
p2743
I2100
sS'9869'
p2744
I1427
sS'9868'
p2745
I1780
sS'9861'
p2746
I1474
sS'9860'
p2747
I1583
sS'9863'
p2748
I1393
sS'9862'
p2749
I1507
sS'9865'
p2750
I1904
sS'9864'
p2751
I1058
sS'9867'
p2752
I1405
sS'9866'
p2753
I1415
sS'103422'
p2754
I377
sS'103423'
p2755
I810
sS'103420'
p2756
I573
sS'103421'
p2757
I925
sS'103426'
p2758
I540
sS'103427'
p2759
I40
sS'103424'
p2760
I856
sS'103425'
p2761
I766
sS'103428'
p2762
I847
sS'103429'
p2763
I25
sS'61369'
p2764
I2496
sS'61368'
p2765
I2468
sS'61365'
p2766
I2004
sS'61364'
p2767
I2613
sS'61367'
p2768
I2356
sS'61366'
p2769
I2001
sS'61361'
p2770
I2983
sS'61360'
p2771
I2071
sS'61363'
p2772
I2398
sS'61362'
p2773
I2917
sS'101632'
p2774
I887
sS'61530'
p2775
I2177
sS'61531'
p2776
I2935
sS'10868'
p2777
I1437
sS'103080'
p2778
I197
sS'103081'
p2779
I569
sS'103082'
p2780
I589
sS'103515'
p2781
I561
sS'103084'
p2782
I168
sS'103085'
p2783
I260
sS'103086'
p2784
I806
sS'103739'
p2785
I487
sS'103088'
p2786
I253
sS'103089'
p2787
I911
sS'103734'
p2788
I443
sS'103735'
p2789
I582
sS'103732'
p2790
I843
sS'103733'
p2791
I753
sS'103731'
p2792
I696
sS'61509'
p2793
I2900
sS'61508'
p2794
I2572
sS'61536'
p2795
I2529
sS'61501'
p2796
I2989
sS'61500'
p2797
I2760
sS'61503'
p2798
I2474
sS'61537'
p2799
I2390
sS'61505'
p2800
I2040
sS'61504'
p2801
I2154
sS'61507'
p2802
I2967
sS'61506'
p2803
I2325
sS'61538'
p2804
I2952
sS'61317'
p2805
I2597
sS'61539'
p2806
I2890
sS'60964'
p2807
I2341
sS'60965'
p2808
I2428
sS'60966'
p2809
I2081
sS'60967'
p2810
I2174
sS'60960'
p2811
I2754
sS'60961'
p2812
I2575
sS'60962'
p2813
I2129
sS'60963'
p2814
I2125
sS'60807'
p2815
I2919
sS'60968'
p2816
I2921
sS'60969'
p2817
I2555
sS'60806'
p2818
I2136
sS'9887'
p2819
I1655
sS'9886'
p2820
I1283
sS'9885'
p2821
I1184
sS'9884'
p2822
I1946
sS'9883'
p2823
I1480
sS'10864'
p2824
I1434
sS'9881'
p2825
I1087
sS'9880'
p2826
I1007
sS'61167'
p2827
I2298
sS'61166'
p2828
I2976
sS'61165'
p2829
I2101
sS'103519'
p2830
I527
sS'61163'
p2831
I2961
sS'61162'
p2832
I2483
sS'9889'
p2833
I1406
sS'9888'
p2834
I1399
sS'61215'
p2835
I2860
sS'61214'
p2836
I2909
sS'61217'
p2837
I2189
sS'61216'
p2838
I2047
sS'61211'
p2839
I2232
sS'10118'
p2840
I1334
sS'61213'
p2841
I2776
sS'61097'
p2842
I2247
sS'10119'
p2843
I1702
sS'61219'
p2844
I2230
sS'61218'
p2845
I2242
sS'61185'
p2846
I2456
sS'61184'
p2847
I2638
sS'61187'
p2848
I2410
sS'61186'
p2849
I2765
sS'61181'
p2850
I2285
sS'61180'
p2851
I2741
sS'61183'
p2852
I2219
sS'61182'
p2853
I2817
sS'61189'
p2854
I2724
sS'61188'
p2855
I2218
sS'61153'
p2856
I2053
sS'9669'
p2857
I1239
sS'10111'
p2858
I1422
sS'60941'
p2859
I2930
sS'102858'
p2860
I595
sS'102859'
p2861
I852
sS'102854'
p2862
I429
sS'102855'
p2863
I406
sS'102856'
p2864
I200
sS'102857'
p2865
I157
sS'102850'
p2866
I216
sS'102851'
p2867
I172
sS'102852'
p2868
I875
sS'102853'
p2869
I932
sS'101551'
p2870
I489
sS'101552'
p2871
I275
sS'101553'
p2872
I706
sS'101554'
p2873
I828
sS'101555'
p2874
I896
sS'101556'
p2875
I503
sS'101557'
p2876
I33
sS'101558'
p2877
I46
sS'101559'
p2878
I290
sS'10048'
p2879
I1903
sS'10049'
p2880
I1560
sS'61152'
p2881
I2439
sS'10040'
p2882
I1112
sS'10041'
p2883
I1670
sS'10734'
p2884
I1271
sS'10735'
p2885
I1438
sS'10044'
p2886
I1339
sS'10045'
p2887
I1379
sS'10730'
p2888
I1362
sS'10047'
p2889
I1192
sS'102928'
p2890
I328
sS'102929'
p2891
I70
sS'102920'
p2892
I278
sS'102921'
p2893
I901
sS'102922'
p2894
I802
sS'102923'
p2895
I962
sS'102924'
p2896
I891
sS'102925'
p2897
I797
sS'102926'
p2898
I389
sS'102927'
p2899
I616
sS'10602'
p2900
I1435
sS'9464'
p2901
I1789
sS'10600'
p2902
I1054
sS'9466'
p2903
I1454
sS'9461'
p2904
I1264
sS'10607'
p2905
I1462
sS'10604'
p2906
I1854
sS'10605'
p2907
I1592
sS'61485'
p2908
I2175
sS'10608'
p2909
I1744
sS'10609'
p2910
I1455
sS'9469'
p2911
I1171
sS'9468'
p2912
I1700
sS'61150'
p2913
I2849
sS'10134'
p2914
I1202
sS'10135'
p2915
I1911
sS'10136'
p2916
I1561
sS'10137'
p2917
I1928
sS'10130'
p2918
I1908
sS'10131'
p2919
I1253
sS'10132'
p2920
I1211
sS'10133'
p2921
I1697
sS'10138'
p2922
I1813
sS'10139'
p2923
I1945
sS'61052'
p2924
I2882
sS'9649'
p2925
I1222
sS'9648'
p2926
I1944
sS'9645'
p2927
I1468
sS'9644'
p2928
I1660
sS'9647'
p2929
I1889
sS'9646'
p2930
I1967
sS'9641'
p2931
I1269
sS'9640'
p2932
I1463
sS'9643'
p2933
I1797
sS'9642'
p2934
I1948
sS'61051'
p2935
I2090
sS'9793'
p2936
I1108
sS'9792'
p2937
I1149
sS'9791'
p2938
I1761
sS'9790'
p2939
I1785
sS'9797'
p2940
I1424
sS'9796'
p2941
I1556
sS'9795'
p2942
I1639
sS'9794'
p2943
I1011
sS'9799'
p2944
I1135
sS'9798'
p2945
I1041
sS'61157'
p2946
I2344
sS'61154'
p2947
I2493
sS'61151'
p2948
I2417
sS'61308'
p2949
I2683
sS'61155'
p2950
I2589
sS'103311'
p2951
I461
sS'9809'
p2952
I1676
sS'103313'
p2953
I677
sS'103318'
p2954
I238
sS'9802'
p2955
I1659
sS'103431'
p2956
I528
sS'103430'
p2957
I179
sS'103433'
p2958
I764
sS'103432'
p2959
I142
sS'103435'
p2960
I372
sS'103434'
p2961
I855
sS'103437'
p2962
I739
sS'103436'
p2963
I143
sS'103439'
p2964
I791
sS'103438'
p2965
I311
sS'61158'
p2966
I2198
sS'9139'
p2967
I1199
sS'10645'
p2968
I1872
sS'61378'
p2969
I2501
sS'61379'
p2970
I2759
sS'61376'
p2971
I2891
sS'61377'
p2972
I2132
sS'61374'
p2973
I2360
sS'61375'
p2974
I2966
sS'61372'
p2975
I2286
sS'61373'
p2976
I2764
sS'61370'
p2977
I2202
sS'61371'
p2978
I2317
sS'60242'
p2979
I2667
sS'103725'
p2980
I206
sS'103724'
p2981
I73
sS'103727'
p2982
I752
sS'103094'
p2983
I1
sS'61156'
p2984
I2647
sS'103093'
p2985
I118
sS'60799'
p2986
I2792
sS'103092'
p2987
I868
sS'60798'
p2988
I2510
sS'103729'
p2989
I415
sS'103728'
p2990
I722
sS'103099'
p2991
I314
sS'103098'
p2992
I433
sS'103097'
p2993
I974
sS'103096'
p2994
I578
sS'103095'
p2995
I936
sS'103726'
p2996
I446
sS'103721'
p2997
I877
sS'103720'
p2998
I916
sS'103091'
p2999
I862
sS'103090'
p3000
I598
s.