(dp0
S'38676'
p1
I2579
sS'38847'
p2
I2320
sS'52268'
p3
I989
sS'52269'
p4
I618
sS'52266'
p5
I545
sS'52267'
p6
I248
sS'52264'
p7
I520
sS'52265'
p8
I255
sS'52262'
p9
I590
sS'52263'
p10
I418
sS'52260'
p11
I579
sS'52261'
p12
I215
sS'39624'
p13
I2817
sS'51609'
p14
I842
sS'51608'
p15
I110
sS'51601'
p16
I561
sS'51600'
p17
I519
sS'51603'
p18
I557
sS'51602'
p19
I695
sS'51605'
p20
I644
sS'51604'
p21
I318
sS'51607'
p22
I433
sS'51606'
p23
I45
sS'52008'
p24
I190
sS'52009'
p25
I156
sS'52002'
p26
I95
sS'52003'
p27
I353
sS'52000'
p28
I673
sS'52001'
p29
I428
sS'52006'
p30
I741
sS'52007'
p31
I999
sS'52004'
p32
I747
sS'52005'
p33
I672
sS'51843'
p34
I645
sS'51842'
p35
I463
sS'51841'
p36
I628
sS'51840'
p37
I528
sS'51847'
p38
I799
sS'51846'
p39
I991
sS'51845'
p40
I309
sS'51844'
p41
I588
sS'51849'
p42
I847
sS'51848'
p43
I766
sS'51959'
p44
I243
sS'52136'
p45
I299
sS'52137'
p46
I823
sS'52134'
p47
I71
sS'52135'
p48
I769
sS'52132'
p49
I921
sS'52133'
p50
I580
sS'52130'
p51
I888
sS'52131'
p52
I440
sS'9524'
p53
I1887
sS'9525'
p54
I1287
sS'9526'
p55
I1097
sS'9527'
p56
I1425
sS'9520'
p57
I1280
sS'9521'
p58
I1923
sS'52138'
p59
I1
sS'52139'
p60
I204
sS'38437'
p61
I2098
sS'38436'
p62
I2922
sS'38435'
p63
I2393
sS'39064'
p64
I2057
sS'38433'
p65
I2637
sS'38432'
p66
I2037
sS'38559'
p67
I2244
sS'38430'
p68
I2361
sS'38439'
p69
I2275
sS'38438'
p70
I2558
sS'10639'
p71
I1307
sS'10638'
p72
I1249
sS'10637'
p73
I1411
sS'10636'
p74
I1613
sS'10635'
p75
I1701
sS'10634'
p76
I1390
sS'10633'
p77
I1795
sS'10141'
p78
I1466
sS'10140'
p79
I1162
sS'10143'
p80
I1388
sS'10142'
p81
I1472
sS'10145'
p82
I1165
sS'10144'
p83
I1808
sS'10147'
p84
I1001
sS'10146'
p85
I1831
sS'10149'
p86
I1413
sS'10148'
p87
I1290
sS'9638'
p88
I1750
sS'9639'
p89
I1958
sS'39042'
p90
I2902
sS'9630'
p91
I1449
sS'9631'
p92
I1571
sS'9632'
p93
I1330
sS'9633'
p94
I1127
sS'9634'
p95
I1546
sS'9635'
p96
I1860
sS'9636'
p97
I1787
sS'9637'
p98
I1132
sS'38503'
p99
I2025
sS'38502'
p100
I2974
sS'38501'
p101
I2391
sS'38500'
p102
I2212
sS'38507'
p103
I2438
sS'10169'
p104
I1823
sS'38505'
p105
I2992
sS'38504'
p106
I2515
sS'38509'
p107
I2978
sS'9611'
p108
I1892
sS'9512'
p109
I1544
sS'38824'
p110
I2810
sS'9744'
p111
I1155
sS'9745'
p112
I1175
sS'9746'
p113
I1098
sS'9747'
p114
I1838
sS'9740'
p115
I1121
sS'9741'
p116
I1341
sS'9742'
p117
I1188
sS'9743'
p118
I1297
sS'9619'
p119
I1937
sS'9748'
p120
I1221
sS'9749'
p121
I1095
sS'38899'
p122
I2345
sS'10093'
p123
I1486
sS'10092'
p124
I1567
sS'10091'
p125
I1432
sS'10090'
p126
I1493
sS'10097'
p127
I1539
sS'10096'
p128
I1467
sS'10095'
p129
I1550
sS'10094'
p130
I1884
sS'38395'
p131
I2270
sS'10099'
p132
I1862
sS'10098'
p133
I1574
sS'51776'
p134
I744
sS'10042'
p135
I1826
sS'38898'
p136
I2710
sS'38392'
p137
I2369
sS'38389'
p138
I2247
sS'51771'
p139
I738
sS'38951'
p140
I2760
sS'38393'
p141
I2582
sS'37951'
p142
I2606
sS'37950'
p143
I2785
sS'37953'
p144
I2066
sS'10864'
p145
I1434
sS'37955'
p146
I2445
sS'37954'
p147
I2813
sS'37957'
p148
I2416
sS'37956'
p149
I2639
sS'37959'
p150
I2011
sS'37958'
p151
I2634
sS'38895'
p152
I2308
sS'38894'
p153
I2368
sS'38590'
p154
I2183
sS'38897'
p155
I2028
sS'38896'
p156
I2972
sS'50419'
p157
I214
sS'50418'
p158
I482
sS'38352'
p159
I2861
sS'38353'
p160
I2907
sS'38350'
p161
I2451
sS'38351'
p162
I2094
sS'38356'
p163
I2618
sS'38357'
p164
I2187
sS'38354'
p165
I2405
sS'38355'
p166
I2392
sS'38891'
p167
I2663
sS'9463'
p168
I1951
sS'38546'
p169
I2596
sS'38890'
p170
I2759
sS'9462'
p171
I1885
sS'38545'
p172
I2818
sS'51779'
p173
I499
sS'52259'
p174
I352
sS'52258'
p175
I80
sS'51539'
p176
I660
sS'52253'
p177
I206
sS'52252'
p178
I320
sS'52251'
p179
I346
sS'52250'
p180
I406
sS'52257'
p181
I879
sS'52256'
p182
I347
sS'52255'
p183
I624
sS'52254'
p184
I48
sS'9876'
p185
I1739
sS'38591'
p186
I2477
sS'9877'
p187
I1719
sS'9874'
p188
I1450
sS'51766'
p189
I946
sS'9875'
p190
I1383
sS'51767'
p191
I764
sS'38892'
p192
I2903
sS'9872'
p193
I1397
sS'51940'
p194
I663
sS'38543'
p195
I2611
sS'9873'
p196
I1743
sS'39005'
p197
I2511
sS'39004'
p198
I2372
sS'51618'
p199
I38
sS'51619'
p200
I408
sS'39001'
p201
I2986
sS'9870'
p202
I1555
sS'39003'
p203
I2310
sS'39002'
p204
I2357
sS'51612'
p205
I103
sS'51946'
p206
I405
sS'51610'
p207
I979
sS'51611'
p208
I162
sS'51616'
p209
I620
sS'51617'
p210
I424
sS'51614'
p211
I679
sS'51615'
p212
I576
sS'51760'
p213
I800
sS'51761'
p214
I936
sS'51858'
p215
I5
sS'51859'
p216
I477
sS'51854'
p217
I295
sS'51855'
p218
I324
sS'51856'
p219
I722
sS'51857'
p220
I267
sS'51850'
p221
I208
sS'51851'
p222
I867
sS'51852'
p223
I483
sS'51853'
p224
I210
sS'38622'
p225
I2796
sS'10807'
p226
I1159
sS'38398'
p227
I2209
sS'38623'
p228
I2856
sS'38399'
p229
I2523
sS'38620'
p230
I2987
sS'38396'
p231
I2151
sS'38621'
p232
I2741
sS'51768'
p233
I832
sS'38397'
p234
I2873
sS'38626'
p235
I2587
sS'10803'
p236
I1674
sS'38394'
p237
I2102
sS'39642'
p238
I2548
sS'52103'
p239
I330
sS'52102'
p240
I441
sS'52101'
p241
I610
sS'52100'
p242
I116
sS'52107'
p243
I8
sS'52106'
p244
I743
sS'52105'
p245
I503
sS'9538'
p246
I1183
sS'9537'
p247
I1623
sS'9536'
p248
I1947
sS'9535'
p249
I1153
sS'52108'
p250
I573
sS'9533'
p251
I1959
sS'9532'
p252
I1803
sS'9531'
p253
I1581
sS'9530'
p254
I1128
sS'38420'
p255
I2418
sS'38421'
p256
I2581
sS'38422'
p257
I2281
sS'38423'
p258
I2428
sS'38424'
p259
I2371
sS'38390'
p260
I2007
sS'38426'
p261
I2670
sS'38427'
p262
I2263
sS'38428'
p263
I2887
sS'38429'
p264
I2182
sS'38391'
p265
I2496
sS'38628'
p266
I2167
sS'39654'
p267
I2289
sS'38629'
p268
I2366
sS'52037'
p269
I531
sS'52036'
p270
I696
sS'52035'
p271
I251
sS'52034'
p272
I244
sS'52033'
p273
I794
sS'52032'
p274
I456
sS'52031'
p275
I487
sS'52030'
p276
I845
sS'10620'
p277
I1815
sS'10622'
p278
I1807
sS'39655'
p279
I2223
sS'52039'
p280
I830
sS'52038'
p281
I337
sS'10152'
p282
I1855
sS'10153'
p283
I1015
sS'10150'
p284
I1182
sS'10151'
p285
I1832
sS'10156'
p286
I1009
sS'10157'
p287
I1606
sS'10154'
p288
I1483
sS'10155'
p289
I1578
sS'10158'
p290
I1129
sS'10159'
p291
I1691
sS'9629'
p292
I1917
sS'9628'
p293
I1367
sS'9623'
p294
I1356
sS'9622'
p295
I1595
sS'9621'
p296
I1515
sS'9620'
p297
I1292
sS'9627'
p298
I1718
sS'9626'
p299
I1698
sS'9625'
p300
I1030
sS'9624'
p301
I1042
sS'38518'
p302
I2277
sS'38519'
p303
I2800
sS'38514'
p304
I2331
sS'38515'
p305
I2888
sS'38516'
p306
I2139
sS'38517'
p307
I2584
sS'38510'
p308
I2712
sS'38511'
p309
I2784
sS'38512'
p310
I2790
sS'38513'
p311
I2520
sS'9757'
p312
I1868
sS'9756'
p313
I1627
sS'9755'
p314
I1764
sS'9754'
p315
I1999
sS'9753'
p316
I1084
sS'9752'
p317
I1237
sS'9751'
p318
I1029
sS'9750'
p319
I1952
sS'38639'
p320
I2146
sS'38638'
p321
I2394
sS'9759'
p322
I1622
sS'9758'
p323
I1274
sS'10088'
p324
I1919
sS'10089'
p325
I1742
sS'10084'
p326
I1746
sS'10085'
p327
I1231
sS'10086'
p328
I1295
sS'10087'
p329
I1320
sS'10080'
p330
I1288
sS'10081'
p331
I1263
sS'10082'
p332
I1834
sS'10083'
p333
I1861
sS'39659'
p334
I2840
sS'38387'
p335
I2069
sS'38593'
p336
I2387
sS'38434'
p337
I2112
sS'38386'
p338
I2917
sS'38549'
p339
I2977
sS'38749'
p340
I2251
sS'38748'
p341
I2306
sS'38745'
p342
I2676
sS'38744'
p343
I2754
sS'38747'
p344
I2867
sS'38746'
p345
I2517
sS'38741'
p346
I2122
sS'38740'
p347
I2005
sS'38743'
p348
I2923
sS'38742'
p349
I2463
sS'37942'
p350
I2135
sS'37943'
p351
I2591
sS'37940'
p352
I2852
sS'37941'
p353
I2583
sS'37946'
p354
I2092
sS'37947'
p355
I2045
sS'37944'
p356
I2731
sS'37945'
p357
I2552
sS'38548'
p358
I2171
sS'37948'
p359
I2016
sS'37949'
p360
I2178
sS'38866'
p361
I2900
sS'38299'
p362
I2224
sS'38298'
p363
I2516
sS'38293'
p364
I2559
sS'38292'
p365
I2328
sS'38291'
p366
I2526
sS'38290'
p367
I2149
sS'38297'
p368
I2365
sS'38296'
p369
I2717
sS'38295'
p370
I2238
sS'38294'
p371
I2876
sS'9988'
p372
I1955
sS'9989'
p373
I1240
sS'9986'
p374
I1563
sS'9987'
p375
I1514
sS'9984'
p376
I1289
sS'9985'
p377
I1073
sS'9982'
p378
I1178
sS'9983'
p379
I1345
sS'9980'
p380
I1799
sS'9981'
p381
I1488
sS'38367'
p382
I2740
sS'38366'
p383
I2121
sS'38365'
p384
I2968
sS'38364'
p385
I2268
sS'38363'
p386
I2755
sS'38362'
p387
I2936
sS'38361'
p388
I2912
sS'38360'
p389
I2217
sS'38369'
p390
I2432
sS'38368'
p391
I2802
sS'38388'
p392
I2638
sS'9528'
p393
I1261
sS'9529'
p394
I1407
sS'51599'
p395
I719
sS'51598'
p396
I203
sS'10170'
p397
I1133
sS'51591'
p398
I42
sS'51590'
p399
I546
sS'51593'
p400
I863
sS'51592'
p401
I470
sS'51595'
p402
I635
sS'51594'
p403
I892
sS'51597'
p404
I803
sS'51596'
p405
I721
sS'51919'
p406
I202
sS'51918'
p407
I453
sS'51915'
p408
I710
sS'51914'
p409
I31
sS'51917'
p410
I931
sS'51916'
p411
I838
sS'51911'
p412
I828
sS'51910'
p413
I589
sS'51913'
p414
I522
sS'51912'
p415
I133
sS'10171'
p416
I1869
sS'9522'
p417
I1723
sS'9523'
p418
I1745
sS'38329'
p419
I2097
sS'51627'
p420
I904
sS'51626'
p421
I73
sS'51625'
p422
I933
sS'51624'
p423
I212
sS'51623'
p424
I0
sS'51622'
p425
I947
sS'51621'
p426
I648
sS'51620'
p427
I200
sS'38759'
p428
I2130
sS'51629'
p429
I839
sS'51628'
p430
I436
sS'9964'
p431
I1669
sS'9965'
p432
I1901
sS'9966'
p433
I1810
sS'9967'
p434
I1403
sS'9960'
p435
I1072
sS'9961'
p436
I1668
sS'9962'
p437
I1693
sS'9963'
p438
I1223
sS'38993'
p439
I2290
sS'38370'
p440
I2635
sS'9968'
p441
I1954
sS'9969'
p442
I1089
sS'39018'
p443
I2880
sS'39019'
p444
I2787
sS'38431'
p445
I2498
sS'38752'
p446
I2071
sS'10173'
p447
I1625
sS'38753'
p448
I2015
sS'51829'
p449
I381
sS'51828'
p450
I458
sS'38985'
p451
I2400
sS'38984'
p452
I2704
sS'38983'
p453
I2988
sS'38982'
p454
I2316
sS'38981'
p455
I2014
sS'38980'
p456
I2157
sS'51821'
p457
I400
sS'51820'
p458
I606
sS'51823'
p459
I313
sS'51822'
p460
I699
sS'51825'
p461
I824
sS'51824'
p462
I58
sS'51827'
p463
I945
sS'51826'
p464
I151
sS'38827'
p465
I2643
sS'38820'
p466
I2229
sS'38821'
p467
I2592
sS'52244'
p468
I953
sS'52245'
p469
I327
sS'52246'
p470
I195
sS'52247'
p471
I812
sS'52240'
p472
I630
sS'52241'
p473
I367
sS'52242'
p474
I336
sS'52243'
p475
I345
sS'38372'
p476
I2733
sS'38823'
p477
I2686
sS'52248'
p478
I793
sS'52249'
p479
I117
sS'9508'
p480
I1882
sS'9509'
p481
I1166
sS'52118'
p482
I15
sS'52119'
p483
I217
sS'52114'
p484
I664
sS'52115'
p485
I932
sS'52116'
p486
I698
sS'52117'
p487
I728
sS'52110'
p488
I283
sS'52111'
p489
I419
sS'52112'
p490
I599
sS'52113'
p491
I397
sS'10867'
p492
I1986
sS'52020'
p493
I108
sS'52021'
p494
I688
sS'52022'
p495
I281
sS'52023'
p496
I310
sS'52024'
p497
I993
sS'52025'
p498
I572
sS'52026'
p499
I124
sS'52027'
p500
I854
sS'52028'
p501
I553
sS'52029'
p502
I712
sS'9616'
p503
I1728
sS'9617'
p504
I1430
sS'9614'
p505
I1235
sS'9615'
p506
I1285
sS'9612'
p507
I1131
sS'9613'
p508
I1942
sS'9610'
p509
I1404
sS'10168'
p510
I1431
sS'10167'
p511
I1784
sS'10166'
p512
I1473
sS'10165'
p513
I1865
sS'10164'
p514
I1027
sS'10163'
p515
I1547
sS'10162'
p516
I1814
sS'9618'
p517
I1582
sS'10160'
p518
I1257
sS'38569'
p519
I2753
sS'38568'
p520
I2161
sS'38561'
p521
I2117
sS'38560'
p522
I2339
sS'38563'
p523
I2286
sS'38562'
p524
I2262
sS'38565'
p525
I2067
sS'38564'
p526
I2879
sS'38567'
p527
I2402
sS'38566'
p528
I2003
sS'10765'
p529
I1380
sS'10767'
p530
I1079
sS'10766'
p531
I1016
sS'10769'
p532
I1530
sS'10768'
p533
I1190
sS'38377'
p534
I2795
sS'9762'
p535
I1247
sS'9763'
p536
I1647
sS'9760'
p537
I1065
sS'9761'
p538
I1505
sS'9766'
p539
I1749
sS'9767'
p540
I1152
sS'9764'
p541
I1681
sS'9765'
p542
I1141
sS'9768'
p543
I1019
sS'9769'
p544
I1906
sS'38285'
p545
I2273
sS'38378'
p546
I2842
sS'38613'
p547
I2020
sS'38379'
p548
I2833
sS'38283'
p549
I2155
sS'10185'
p550
I1541
sS'10184'
p551
I1910
sS'10187'
p552
I1442
sS'10186'
p553
I1005
sS'10181'
p554
I1076
sS'10180'
p555
I1126
sS'10183'
p556
I1708
sS'10182'
p557
I1521
sS'38756'
p558
I2429
sS'38757'
p559
I2610
sS'38754'
p560
I2296
sS'38755'
p561
I2200
sS'10189'
p562
I1426
sS'10188'
p563
I1074
sS'38750'
p564
I2916
sS'38289'
p565
I2114
sS'10943'
p566
I1456
sS'9897'
p567
I1082
sS'9959'
p568
I1663
sS'38873'
p569
I2640
sS'9958'
p570
I1921
sS'10942'
p571
I1603
sS'38284'
p572
I2214
sS'9955'
p573
I1936
sS'38286'
p574
I2949
sS'38287'
p575
I2659
sS'38280'
p576
I2141
sS'38281'
p577
I2190
sS'38282'
p578
I2769
sS'9954'
p579
I1373
sS'38872'
p580
I2542
sS'38288'
p581
I2597
sS'9957'
p582
I1974
sS'9956'
p583
I1498
sS'39045'
p584
I2632
sS'10945'
p585
I1979
sS'39044'
p586
I2042
sS'9953'
p587
I1067
sS'39084'
p588
I2886
sS'38893'
p589
I2854
sS'9952'
p590
I1652
sS'10944'
p591
I1116
sS'9999'
p592
I1382
sS'9998'
p593
I1358
sS'10795'
p594
I1584
sS'9991'
p595
I1960
sS'9990'
p596
I1586
sS'9993'
p597
I1997
sS'9992'
p598
I1970
sS'9995'
p599
I1491
sS'10796'
p600
I1524
sS'9997'
p601
I1619
sS'9996'
p602
I1995
sS'50471'
p603
I622
sS'50470'
p604
I123
sS'50473'
p605
I79
sS'50472'
p606
I806
sS'50475'
p607
I366
sS'50474'
p608
I680
sS'50477'
p609
I894
sS'50476'
p610
I962
sS'50479'
p611
I549
sS'10790'
p612
I1218
sS'38598'
p613
I2465
sS'10023'
p614
I1348
sS'39489'
p615
I2738
sS'39488'
p616
I2679
sS'10020'
p617
I1733
sS'38751'
p618
I2580
sS'10793'
p619
I1214
sS'39487'
p620
I2395
sS'10727'
p621
I1980
sS'38506'
p622
I2808
sS'51588'
p623
I565
sS'51589'
p624
I181
sS'50509'
p625
I638
sS'50508'
p626
I767
sS'50505'
p627
I914
sS'50504'
p628
I910
sS'50507'
p629
I19
sS'50506'
p630
I856
sS'50501'
p631
I778
sS'51587'
p632
I592
sS'51584'
p633
I145
sS'51585'
p634
I730
sS'38508'
p635
I2314
sS'51908'
p636
I720
sS'51909'
p637
I851
sS'51906'
p638
I704
sS'51907'
p639
I574
sS'51904'
p640
I452
sS'51905'
p641
I112
sS'51902'
p642
I182
sS'51903'
p643
I254
sS'51900'
p644
I739
sS'51901'
p645
I387
sS'51630'
p646
I466
sS'51631'
p647
I412
sS'51632'
p648
I755
sS'51633'
p649
I723
sS'51634'
p650
I512
sS'51635'
p651
I409
sS'51636'
p652
I154
sS'51637'
p653
I457
sS'51638'
p654
I697
sS'51639'
p655
I290
sS'9977'
p656
I1602
sS'9976'
p657
I1971
sS'9975'
p658
I1837
sS'9974'
p659
I1489
sS'9973'
p660
I1446
sS'9972'
p661
I1301
sS'9971'
p662
I1690
sS'9970'
p663
I1465
sS'39029'
p664
I2503
sS'39028'
p665
I2509
sS'9979'
p666
I1354
sS'9978'
p667
I1250
sS'52345'
p668
I83
sS'10870'
p669
I1357
sS'52347'
p670
I179
sS'52346'
p671
I77
sS'52341'
p672
I666
sS'52340'
p673
I450
sS'52343'
p674
I922
sS'52342'
p675
I165
sS'38990'
p676
I2722
sS'38991'
p677
I2566
sS'51838'
p678
I865
sS'51839'
p679
I657
sS'38994'
p680
I2549
sS'38995'
p681
I2373
sS'38996'
p682
I2264
sS'38997'
p683
I2743
sS'51832'
p684
I155
sS'51833'
p685
I805
sS'51830'
p686
I170
sS'51831'
p687
I24
sS'51836'
p688
I782
sS'51837'
p689
I191
sS'51834'
p690
I62
sS'51835'
p691
I619
sS'9850'
p692
I1935
sS'38879'
p693
I2821
sS'9851'
p694
I1553
sS'9852'
p695
I1874
sS'52231'
p696
I844
sS'52230'
p697
I550
sS'52233'
p698
I102
sS'52232'
p699
I451
sS'52235'
p700
I258
sS'52234'
p701
I742
sS'52237'
p702
I376
sS'52236'
p703
I990
sS'52239'
p704
I705
sS'52238'
p705
I969
sS'51514'
p706
I382
sS'52169'
p707
I642
sS'52168'
p708
I591
sS'38878'
p709
I2883
sS'10872'
p710
I1927
sS'39653'
p711
I2730
sS'52161'
p712
I567
sS'52160'
p713
I603
sS'52163'
p714
I66
sS'51516'
p715
I633
sS'52165'
p716
I446
sS'52164'
p717
I358
sS'52167'
p718
I241
sS'52166'
p719
I995
sS'9858'
p720
I1692
sS'9859'
p721
I1822
sS'50434'
p722
I750
sS'10827'
p723
I1727
sS'51926'
p724
I581
sS'9994'
p725
I1526
sS'10873'
p726
I1933
sS'51927'
p727
I925
sS'51920'
p728
I216
sS'10823'
p729
I1378
sS'9601'
p730
I1386
sS'10179'
p731
I1254
sS'9603'
p732
I1513
sS'9602'
p733
I1849
sS'9605'
p734
I1226
sS'9604'
p735
I1310
sS'9607'
p736
I1975
sS'9606'
p737
I1447
sS'9609'
p738
I1210
sS'9608'
p739
I1752
sS'10172'
p740
I1871
sS'51888'
p741
I315
sS'10174'
p742
I1137
sS'10175'
p743
I1418
sS'10176'
p744
I1600
sS'10177'
p745
I1050
sS'10941'
p746
I1391
sS'38373'
p747
I2723
sS'10161'
p748
I1601
sS'10940'
p749
I1981
sS'38374'
p750
I2386
sS'51669'
p751
I568
sS'38375'
p752
I2332
sS'38644'
p753
I2225
sS'38578'
p754
I2324
sS'51668'
p755
I431
sS'38376'
p756
I2724
sS'38645'
p757
I2654
sS'38572'
p758
I2491
sS'51928'
p759
I701
sS'38570'
p760
I2892
sS'10938'
p761
I1122
sS'38576'
p762
I2464
sS'38577'
p763
I2493
sS'38574'
p764
I2422
sS'51929'
p765
I905
sS'9515'
p766
I1792
sS'9514'
p767
I1485
sS'10770'
p768
I1068
sS'9516'
p769
I1316
sS'9511'
p770
I1314
sS'9510'
p771
I1452
sS'9513'
p772
I1504
sS'50478'
p773
I616
sS'38640'
p774
I2838
sS'52210'
p775
I729
sS'9519'
p776
I1536
sS'9518'
p777
I1978
sS'38641'
p778
I2644
sS'38346'
p779
I2512
sS'38642'
p780
I2561
sS'10939'
p781
I1992
sS'38643'
p782
I2437
sS'39738'
p783
I2186
sS'9779'
p784
I1461
sS'9778'
p785
I1829
sS'38619'
p786
I2742
sS'38618'
p787
I2093
sS'9775'
p788
I1298
sS'9774'
p789
I1877
sS'9777'
p790
I1275
sS'9776'
p791
I1099
sS'9771'
p792
I1003
sS'9770'
p793
I1458
sS'9773'
p794
I1048
sS'9772'
p795
I1712
sS'38648'
p796
I2973
sS'38722'
p797
I2828
sS'9472'
p798
I1716
sS'9473'
p799
I1766
sS'52066'
p800
I101
sS'9471'
p801
I1376
sS'9476'
p802
I1470
sS'52061'
p803
I373
sS'10206'
p804
I1208
sS'10207'
p805
I1828
sS'10204'
p806
I1497
sS'10205'
p807
I1421
sS'10202'
p808
I1893
sS'10203'
p809
I1028
sS'10200'
p810
I1173
sS'10201'
p811
I1559
sS'9475'
p812
I1398
sS'10208'
p813
I1964
sS'10196'
p814
I1632
sS'10197'
p815
I1375
sS'10194'
p816
I1057
sS'10195'
p817
I1429
sS'10192'
p818
I1566
sS'10193'
p819
I1537
sS'10190'
p820
I1695
sS'10191'
p821
I1414
sS'38763'
p822
I2446
sS'38762'
p823
I2823
sS'38761'
p824
I2556
sS'38760'
p825
I2706
sS'38767'
p826
I2667
sS'38766'
p827
I2629
sS'10198'
p828
I1296
sS'10199'
p829
I1309
sS'37960'
p830
I2397
sS'37961'
p831
I2725
sS'37962'
p832
I2749
sS'37963'
p833
I2215
sS'38989'
p834
I2383
sS'10675'
p835
I1738
sS'8514'
p836
I1798
sS'38988'
p837
I2937
sS'50462'
p838
I717
sS'50463'
p839
I935
sS'50460'
p840
I379
sS'50461'
p841
I393
sS'50466'
p842
I949
sS'50467'
p843
I649
sS'50464'
p844
I370
sS'50465'
p845
I725
sS'38385'
p846
I2153
sS'38384'
p847
I2010
sS'50468'
p848
I268
sS'50469'
p849
I69
sS'38381'
p850
I2979
sS'38380'
p851
I2793
sS'38383'
p852
I2865
sS'38382'
p853
I2036
sS'39498'
p854
I2291
sS'39499'
p855
I2711
sS'39490'
p856
I2913
sS'39496'
p857
I2565
sS'39497'
p858
I2388
sS'39495'
p859
I2188
sS'10051'
p860
I1920
sS'10808'
p861
I1793
sS'50518'
p862
I159
sS'50519'
p863
I540
sS'50516'
p864
I841
sS'50517'
p865
I655
sS'50514'
p866
I275
sS'50515'
p867
I814
sS'50512'
p868
I777
sS'50513'
p869
I855
sS'50510'
p870
I515
sS'50511'
p871
I797
sS'51939'
p872
I857
sS'51938'
p873
I205
sS'51933'
p874
I316
sS'51932'
p875
I383
sS'51931'
p876
I141
sS'51930'
p877
I29
sS'51937'
p878
I944
sS'51936'
p879
I754
sS'51935'
p880
I770
sS'51934'
p881
I885
sS'9869'
p882
I1427
sS'10693'
p883
I1715
sS'9868'
p884
I1780
sS'9942'
p885
I1824
sS'9943'
p886
I1319
sS'9940'
p887
I1542
sS'9941'
p888
I1972
sS'9946'
p889
I1044
sS'9947'
p890
I1055
sS'9944'
p891
I1036
sS'9945'
p892
I1836
sS'39034'
p893
I2844
sS'39035'
p894
I2321
sS'9948'
p895
I1101
sS'9949'
p896
I1394
sS'39030'
p897
I2857
sS'39031'
p898
I2300
sS'39032'
p899
I2484
sS'39033'
p900
I2881
sS'51807'
p901
I555
sS'51806'
p902
I404
sS'51805'
p903
I298
sS'51804'
p904
I917
sS'51803'
p905
I612
sS'51802'
p906
I771
sS'51801'
p907
I678
sS'51800'
p908
I862
sS'51809'
p909
I641
sS'51808'
p910
I351
sS'38969'
p911
I2651
sS'38968'
p912
I2191
sS'38965'
p913
I2536
sS'38964'
p914
I2554
sS'38967'
p915
I2455
sS'38966'
p916
I2301
sS'38961'
p917
I2048
sS'38960'
p918
I2136
sS'38963'
p919
I2673
sS'38962'
p920
I2169
sS'39043'
p921
I2377
sS'52222'
p922
I87
sS'52223'
p923
I122
sS'52220'
p924
I180
sS'52221'
p925
I264
sS'52226'
p926
I422
sS'52227'
p927
I229
sS'52224'
p928
I702
sS'52225'
p929
I534
sS'52228'
p930
I7
sS'52229'
p931
I140
sS'10839'
p932
I1338
sS'10838'
p933
I1531
sS'52178'
p934
I878
sS'52179'
p935
I270
sS'52172'
p936
I174
sS'52173'
p937
I658
sS'52170'
p938
I859
sS'52171'
p939
I570
sS'52176'
p940
I467
sS'52177'
p941
I160
sS'52174'
p942
I837
sS'52175'
p943
I363
sS'51582'
p944
I874
sS'10806'
p945
I1308
sS'51583'
p946
I505
sS'10697'
p947
I1918
sS'51580'
p948
I292
sS'38806'
p949
I2627
sS'51581'
p950
I527
sS'38807'
p951
I2843
sS'51586'
p952
I296
sS'38804'
p953
I2525
sS'50500'
p954
I93
sS'38553'
p955
I2901
sS'50503'
p956
I81
sS'38554'
p957
I2931
sS'50502'
p958
I629
sS'38555'
p959
I2783
sS'38556'
p960
I2891
sS'38801'
p961
I2945
sS'38547'
p962
I2032
sS'10698'
p963
I1741
sS'38817'
p964
I2133
sS'38544'
p965
I2282
sS'9168'
p966
I1686
sS'9169'
p967
I1864
sS'38541'
p968
I2555
sS'9176'
p969
I1909
sS'9164'
p970
I1377
sS'9165'
p971
I1705
sS'9166'
p972
I1061
sS'9167'
p973
I1189
sS'10695'
p974
I1268
sS'10694'
p975
I1207
sS'9162'
p976
I1511
sS'10696'
p977
I1053
sS'38908'
p978
I2001
sS'9560'
p979
I1754
sS'9561'
p980
I1665
sS'9562'
p981
I1989
sS'9563'
p982
I1158
sS'9564'
p983
I1002
sS'9565'
p984
I1487
sS'9566'
p985
I1242
sS'9567'
p986
I1898
sS'9568'
p987
I1532
sS'9569'
p988
I1689
sS'10685'
p989
I1024
sS'10743'
p990
I1949
sS'10742'
p991
I1562
sS'10741'
p992
I1219
sS'10740'
p993
I1678
sS'38418'
p994
I2976
sS'9708'
p995
I1251
sS'9709'
p996
I1365
sS'9700'
p997
I1633
sS'9701'
p998
I1322
sS'9702'
p999
I1369
sS'9703'
p1000
I1821
sS'9704'
p1001
I1847
sS'9705'
p1002
I1139
sS'9706'
p1003
I1985
sS'9707'
p1004
I1313
sS'39658'
p1005
I2631
sS'38774'
p1006
I2471
sS'38775'
p1007
I2390
sS'38776'
p1008
I2545
sS'38777'
p1009
I2272
sS'38770'
p1010
I2928
sS'38771'
p1011
I2502
sS'38772'
p1012
I2337
sS'9846'
p1013
I1894
sS'38778'
p1014
I2144
sS'38779'
p1015
I2303
sS'39636'
p1016
I2382
sS'52147'
p1017
I662
sS'39634'
p1018
I2227
sS'39635'
p1019
I2586
sS'39632'
p1020
I2118
sS'39633'
p1021
I2786
sS'39630'
p1022
I2671
sS'52146'
p1023
I369
sS'52145'
p1024
I913
sS'39638'
p1025
I2172
sS'39639'
p1026
I2809
sS'52144'
p1027
I144
sS'10797'
p1028
I1464
sS'52143'
p1029
I429
sS'9576'
p1030
I1516
sS'9575'
p1031
I1607
sS'9136'
p1032
I1696
sS'9574'
p1033
I1835
sS'52104'
p1034
I305
sS'9866'
p1035
I1415
sS'39023'
p1036
I2692
sS'50459'
p1037
I974
sS'50458'
p1038
I494
sS'50457'
p1039
I484
sS'50456'
p1040
I136
sS'50455'
p1041
I287
sS'50454'
p1042
I939
sS'50453'
p1043
I11
sS'50452'
p1044
I897
sS'50451'
p1045
I22
sS'50450'
p1046
I980
sS'39020'
p1047
I2435
sS'10812'
p1048
I1929
sS'39027'
p1049
I2061
sS'39026'
p1050
I2964
sS'39025'
p1051
I2702
sS'39024'
p1052
I2111
sS'10811'
p1053
I1843
sS'39737'
p1054
I2101
sS'9650'
p1055
I1400
sS'39656'
p1056
I2893
sS'50529'
p1057
I20
sS'50528'
p1058
I780
sS'50523'
p1059
I915
sS'50522'
p1060
I115
sS'50521'
p1061
I465
sS'50520'
p1062
I566
sS'50527'
p1063
I637
sS'50526'
p1064
I902
sS'50525'
p1065
I992
sS'50524'
p1066
I562
sS'10121'
p1067
I1778
sS'10120'
p1068
I1614
sS'10816'
p1069
I1590
sS'39049'
p1070
I2661
sS'39048'
p1071
I2695
sS'51498'
p1072
I714
sS'51499'
p1073
I537
sS'52344'
p1074
I201
sS'51494'
p1075
I168
sS'51495'
p1076
I331
sS'51496'
p1077
I881
sS'51497'
p1078
I489
sS'9951'
p1079
I1706
sS'9950'
p1080
I1961
sS'51492'
p1081
I64
sS'51493'
p1082
I632
sS'51810'
p1083
I911
sS'51811'
p1084
I596
sS'51812'
p1085
I60
sS'51813'
p1086
I533
sS'51814'
p1087
I765
sS'51815'
p1088
I280
sS'51816'
p1089
I99
sS'51817'
p1090
I249
sS'51818'
p1091
I536
sS'51819'
p1092
I238
sS'10815'
p1093
I1956
sS'10724'
p1094
I1777
sS'38526'
p1095
I2352
sS'38978'
p1096
I2894
sS'38979'
p1097
I2656
sS'38976'
p1098
I2285
sS'38977'
p1099
I2688
sS'38975'
p1100
I2860
sS'38972'
p1101
I2980
sS'38973'
p1102
I2203
sS'38970'
p1103
I2910
sS'38971'
p1104
I2593
sS'10814'
p1105
I1890
sS'38522'
p1106
I2707
sS'38992'
p1107
I2529
sS'51924'
p1108
I312
sS'51925'
p1109
I97
sS'10824'
p1110
I1323
sS'10825'
p1111
I1229
sS'10822'
p1112
I1187
sS'51921'
p1113
I813
sS'52219'
p1114
I858
sS'51923'
p1115
I762
sS'52217'
p1116
I340
sS'52216'
p1117
I604
sS'52215'
p1118
I868
sS'52214'
p1119
I143
sS'52213'
p1120
I650
sS'52212'
p1121
I407
sS'52211'
p1122
I753
sS'10829'
p1123
I1085
sS'39068'
p1124
I2466
sS'38998'
p1125
I2459
sS'38816'
p1126
I2522
sS'38999'
p1127
I2068
sS'50485'
p1128
I626
sS'10819'
p1129
I1850
sS'38550'
p1130
I2413
sS'38551'
p1131
I2336
sS'38552'
p1132
I2513
sS'38805'
p1133
I2599
sS'38802'
p1134
I2009
sS'38803'
p1135
I2065
sS'38800'
p1136
I2192
sS'38557'
p1137
I2739
sS'38558'
p1138
I2630
sS'10683'
p1139
I1662
sS'9175'
p1140
I1675
sS'9174'
p1141
I1732
sS'9173'
p1142
I1883
sS'9172'
p1143
I1243
sS'10684'
p1144
I1558
sS'9170'
p1145
I1148
sS'9573'
p1146
I1291
sS'9572'
p1147
I1181
sS'9571'
p1148
I1154
sS'9570'
p1149
I1329
sS'9577'
p1150
I1335
sS'52142'
p1151
I495
sS'52141'
p1152
I120
sS'52140'
p1153
I6
sS'9579'
p1154
I1238
sS'9578'
p1155
I1077
sS'52149'
p1156
I285
sS'52148'
p1157
I943
sS'9879'
p1158
I1683
sS'39736'
p1159
I2869
sS'9719'
p1160
I1328
sS'9718'
p1161
I1500
sS'51549'
p1162
I253
sS'9713'
p1163
I1734
sS'9712'
p1164
I1827
sS'9711'
p1165
I1203
sS'9710'
p1166
I1540
sS'9717'
p1167
I1612
sS'9716'
p1168
I1017
sS'9715'
p1169
I1816
sS'9714'
p1170
I1340
sS'51645'
p1171
I176
sS'52339'
p1172
I414
sS'37932'
p1173
I2805
sS'51579'
p1174
I808
sS'38701'
p1175
I2064
sS'38700'
p1176
I2054
sS'38703'
p1177
I2563
sS'50551'
p1178
I611
sS'38705'
p1179
I2993
sS'38335'
p1180
I2752
sS'38707'
p1181
I2951
sS'38706'
p1182
I2504
sS'38709'
p1183
I2440
sS'38708'
p1184
I2342
sS'52334'
p1185
I587
sS'52335'
p1186
I563
sS'9832'
p1187
I1714
sS'38702'
p1188
I2322
sS'9833'
p1189
I1484
sS'9830'
p1190
I1117
sS'38704'
p1191
I2864
sS'38877'
p1192
I2766
sS'9831'
p1193
I1401
sS'38876'
p1194
I2257
sS'9836'
p1195
I1174
sS'38875'
p1196
I2243
sS'51576'
p1197
I810
sS'38874'
p1198
I2074
sS'51575'
p1199
I668
sS'10809'
p1200
I1410
sS'9458'
p1201
I1594
sS'9835'
p1202
I1206
sS'9459'
p1203
I1672
sS'38871'
p1204
I2038
sS'38870'
p1205
I2062
sS'38358'
p1206
I2288
sS'10673'
p1207
I1522
sS'38359'
p1208
I2154
sS'10672'
p1209
I1656
sS'52162'
p1210
I593
sS'9452'
p1211
I1364
sS'9453'
p1212
I1523
sS'50448'
p1213
I129
sS'50449'
p1214
I417
sS'50440'
p1215
I669
sS'50441'
p1216
I898
sS'50442'
p1217
I784
sS'50443'
p1218
I152
sS'50444'
p1219
I682
sS'50445'
p1220
I278
sS'50446'
p1221
I732
sS'50447'
p1222
I476
sS'9871'
p1223
I1018
sS'10826'
p1224
I1610
sS'51799'
p1225
I829
sS'51798'
p1226
I956
sS'51797'
p1227
I461
sS'51796'
p1228
I334
sS'51795'
p1229
I556
sS'51794'
p1230
I789
sS'51793'
p1231
I413
sS'51792'
p1232
I185
sS'51791'
p1233
I319
sS'51790'
p1234
I850
sS'50534'
p1235
I569
sS'50535'
p1236
I552
sS'50536'
p1237
I488
sS'50537'
p1238
I653
sS'51559'
p1239
I942
sS'50531'
p1240
I783
sS'50532'
p1241
I571
sS'50533'
p1242
I121
sS'51555'
p1243
I303
sS'9815'
p1244
I1317
sS'51557'
p1245
I605
sS'51556'
p1246
I479
sS'9810'
p1247
I1092
sS'9811'
p1248
I1201
sS'9812'
p1249
I1185
sS'51552'
p1250
I25
sS'38235'
p1251
I2868
sS'38234'
p1252
I2882
sS'38237'
p1253
I2495
sS'38236'
p1254
I2648
sS'38231'
p1255
I2421
sS'38230'
p1256
I2562
sS'38233'
p1257
I2070
sS'38232'
p1258
I2043
sS'38239'
p1259
I2926
sS'38238'
p1260
I2714
sS'9928'
p1261
I1492
sS'9929'
p1262
I1897
sS'39058'
p1263
I2884
sS'39059'
p1264
I2220
sS'9920'
p1265
I1867
sS'9921'
p1266
I1302
sS'9922'
p1267
I1554
sS'9923'
p1268
I1801
sS'9924'
p1269
I1459
sS'9925'
p1270
I1371
sS'9926'
p1271
I1336
sS'9927'
p1272
I1245
sS'38949'
p1273
I2280
sS'38948'
p1274
I2774
sS'38943'
p1275
I2748
sS'38942'
p1276
I2443
sS'38941'
p1277
I2622
sS'38940'
p1278
I2249
sS'38947'
p1279
I2617
sS'38946'
p1280
I2156
sS'38945'
p1281
I2989
sS'38944'
p1282
I2650
sS'51775'
p1283
I693
sS'51774'
p1284
I374
sS'51777'
p1285
I189
sS'51952'
p1286
I876
sS'10817'
p1287
I1234
sS'51954'
p1288
I772
sS'51957'
p1289
I817
sS'51956'
p1290
I634
sS'52200'
p1291
I356
sS'52201'
p1292
I821
sS'52202'
p1293
I307
sS'10818'
p1294
I1299
sS'52204'
p1295
I891
sS'52205'
p1296
I471
sS'52206'
p1297
I740
sS'52207'
p1298
I44
sS'38491'
p1299
I2119
sS'39070'
p1300
I2126
sS'38493'
p1301
I2997
sS'38492'
p1302
I2284
sS'38495'
p1303
I2614
sS'38494'
p1304
I2814
sS'38497'
p1305
I2603
sS'39071'
p1306
I2468
sS'38499'
p1307
I2325
sS'38498'
p1308
I2499
sS'39072'
p1309
I2999
sS'39073'
p1310
I2941
sS'10821'
p1311
I1709
sS'39074'
p1312
I2792
sS'39075'
p1313
I2975
sS'39076'
p1314
I2798
sS'39077'
p1315
I2436
sS'39079'
p1316
I2620
sS'10178'
p1317
I1941
sS'9840'
p1318
I1976
sS'9600'
p1319
I1293
sS'9498'
p1320
I1878
sS'9499'
p1321
I1000
sS'9148'
p1322
I1012
sS'9149'
p1323
I1157
sS'38837'
p1324
I2689
sS'38836'
p1325
I2623
sS'38835'
p1326
I2519
sS'38834'
p1327
I2449
sS'9490'
p1328
I1687
sS'9143'
p1329
I1508
sS'9140'
p1330
I1344
sS'9493'
p1331
I1255
sS'9494'
p1332
I1109
sS'9147'
p1333
I1417
sS'9144'
p1334
I1573
sS'9145'
p1335
I1111
sS'9847'
p1336
I1416
sS'52150'
p1337
I508
sS'52151'
p1338
I242
sS'52152'
p1339
I311
sS'52153'
p1340
I575
sS'52154'
p1341
I323
sS'52155'
p1342
I775
sS'52156'
p1343
I106
sS'52157'
p1344
I480
sS'52158'
p1345
I918
sS'9547'
p1346
I1346
sS'9544'
p1347
I1863
sS'9545'
p1348
I1056
sS'9542'
p1349
I1879
sS'9543'
p1350
I1740
sS'9540'
p1351
I1233
sS'9541'
p1352
I1751
sS'9726'
p1353
I1179
sS'9727'
p1354
I1490
sS'9724'
p1355
I1031
sS'9725'
p1356
I1114
sS'9722'
p1357
I1724
sS'9723'
p1358
I1615
sS'9720'
p1359
I1852
sS'9721'
p1360
I1589
sS'9728'
p1361
I1772
sS'9729'
p1362
I1277
sS'10783'
p1363
I1265
sS'10782'
p1364
I1804
sS'10781'
p1365
I1090
sS'10780'
p1366
I1198
sS'10787'
p1367
I1266
sS'10038'
p1368
I1782
sS'10785'
p1369
I1876
sS'10784'
p1370
I1440
sS'10035'
p1371
I1366
sS'10034'
p1372
I1441
sS'10037'
p1373
I1355
sS'10036'
p1374
I1194
sS'10031'
p1375
I1014
sS'10030'
p1376
I1645
sS'10033'
p1377
I1282
sS'10032'
p1378
I1197
sS'38712'
p1379
I2684
sS'38713'
p1380
I2059
sS'38710'
p1381
I2678
sS'38711'
p1382
I2381
sS'38716'
p1383
I2649
sS'38717'
p1384
I2245
sS'38714'
p1385
I2744
sS'38715'
p1386
I2921
sS'38718'
p1387
I2110
sS'38719'
p1388
I2801
sS'9670'
p1389
I1840
sS'39618'
p1390
I2568
sS'39619'
p1391
I2259
sS'9141'
p1392
I1392
sS'10828'
p1393
I1682
sS'39617'
p1394
I2091
sS'38928'
p1395
I2956
sS'9671'
p1396
I1236
sS'38579'
p1397
I2333
sS'38573'
p1398
I2023
sS'38571'
p1399
I2521
sS'38575'
p1400
I2535
sS'9517'
p1401
I1988
sS'10771'
p1402
I1081
sS'51550'
p1403
I43
sS'50493'
p1404
I139
sS'50492'
p1405
I90
sS'50491'
p1406
I542
sS'50490'
p1407
I51
sS'50497'
p1408
I227
sS'50496'
p1409
I937
sS'50495'
p1410
I444
sS'50494'
p1411
I934
sS'50499'
p1412
I72
sS'50498'
p1413
I643
sS'51788'
p1414
I840
sS'51789'
p1415
I727
sS'51780'
p1416
I776
sS'51781'
p1417
I220
sS'51782'
p1418
I41
sS'51783'
p1419
I801
sS'51784'
p1420
I538
sS'51785'
p1421
I402
sS'51786'
p1422
I872
sS'51787'
p1423
I188
sS'50541'
p1424
I259
sS'50540'
p1425
I532
sS'50543'
p1426
I919
sS'50542'
p1427
I183
sS'50545'
p1428
I96
sS'50544'
p1429
I940
sS'51548'
p1430
I970
sS'9808'
p1431
I1170
sS'50549'
p1432
I177
sS'51547'
p1433
I692
sS'9805'
p1434
I1311
sS'51545'
p1435
I88
sS'9803'
p1436
I1213
sS'51543'
p1437
I873
sS'51540'
p1438
I89
sS'51541'
p1439
I493
sS'38226'
p1440
I2412
sS'38227'
p1441
I2564
sS'38224'
p1442
I2081
sS'38225'
p1443
I2137
sS'38222'
p1444
I2870
sS'38223'
p1445
I2419
sS'38220'
p1446
I2063
sS'38221'
p1447
I2431
sS'38825'
p1448
I2571
sS'38228'
p1449
I2072
sS'38229'
p1450
I2254
sS'9678'
p1451
I1825
sS'9861'
p1452
I1474
sS'38769'
p1453
I2127
sS'9860'
p1454
I1583
sS'38826'
p1455
I2142
sS'9863'
p1456
I1393
sS'39067'
p1457
I2645
sS'39066'
p1458
I2349
sS'39065'
p1459
I2248
sS'9862'
p1460
I1507
sS'39063'
p1461
I2292
sS'39062'
p1462
I2193
sS'39061'
p1463
I2297
sS'39060'
p1464
I2633
sS'9865'
p1465
I1904
sS'39007'
p1466
I2346
sS'39069'
p1467
I2017
sS'9864'
p1468
I1058
sS'9939'
p1469
I1635
sS'9938'
p1470
I1549
sS'9867'
p1471
I1405
sS'9933'
p1472
I1631
sS'9932'
p1473
I1389
sS'9931'
p1474
I1225
sS'9930'
p1475
I1168
sS'9937'
p1476
I1858
sS'9936'
p1477
I1643
sS'9935'
p1478
I1327
sS'9934'
p1479
I1842
sS'38954'
p1480
I2078
sS'38955'
p1481
I2878
sS'38956'
p1482
I2539
sS'38957'
p1483
I2572
sS'38950'
p1484
I2862
sS'51755'
p1485
I118
sS'38952'
p1486
I2948
sS'38953'
p1487
I2079
sS'51978'
p1488
I896
sS'38958'
p1489
I2362
sS'38959'
p1490
I2940
sS'10871'
p1491
I1195
sS'51613'
p1492
I746
sS'51759'
p1493
I578
sS'39650'
p1494
I2768
sS'52129'
p1495
I504
sS'51758'
p1496
I609
sS'39651'
p1497
I2939
sS'39009'
p1498
I2077
sS'10831'
p1499
I1914
sS'39652'
p1500
I2143
sS'10874'
p1501
I1120
sS'51942'
p1502
I558
sS'51943'
p1503
I509
sS'51764'
p1504
I514
sS'51941'
p1505
I98
sS'51762'
p1506
I389
sS'51947'
p1507
I128
sS'51944'
p1508
I760
sS'51945'
p1509
I708
sS'10804'
p1510
I1502
sS'10805'
p1511
I1331
sS'51948'
p1512
I142
sS'51949'
p1513
I647
sS'10800'
p1514
I1866
sS'10801'
p1515
I1905
sS'10802'
p1516
I1138
sS'51769'
p1517
I234
sS'38482'
p1518
I2984
sS'38483'
p1519
I2652
sS'38480'
p1520
I2246
sS'38481'
p1521
I2315
sS'38486'
p1522
I2103
sS'38487'
p1523
I2642
sS'38484'
p1524
I2221
sS'38485'
p1525
I2505
sS'38488'
p1526
I2430
sS'39657'
p1527
I2021
sS'38822'
p1528
I2947
sS'38617'
p1529
I2406
sS'38616'
p1530
I2680
sS'38615'
p1531
I2013
sS'52091'
p1532
I237
sS'52090'
p1533
I659
sS'52093'
p1534
I473
sS'52092'
p1535
I745
sS'52095'
p1536
I233
sS'52094'
p1537
I996
sS'52097'
p1538
I866
sS'52096'
p1539
I860
sS'52099'
p1540
I91
sS'52098'
p1541
I516
sS'38768'
p1542
I2260
sS'9679'
p1543
I1596
sS'52301'
p1544
I105
sS'52300'
p1545
I964
sS'52303'
p1546
I875
sS'52302'
p1547
I475
sS'52305'
p1548
I677
sS'52304'
p1549
I328
sS'52307'
p1550
I34
sS'52306'
p1551
I274
sS'52309'
p1552
I100
sS'52308'
p1553
I92
sS'38610'
p1554
I2607
sS'9155'
p1555
I1205
sS'9154'
p1556
I1051
sS'9157'
p1557
I1276
sS'9156'
p1558
I1604
sS'9151'
p1559
I1762
sS'9150'
p1560
I1200
sS'9153'
p1561
I1478
sS'9152'
p1562
I1621
sS'9159'
p1563
I1987
sS'9158'
p1564
I1273
sS'9489'
p1565
I1634
sS'9488'
p1566
I1769
sS'38828'
p1567
I2173
sS'38829'
p1568
I2180
sS'9483'
p1569
I1902
sS'9482'
p1570
I1934
sS'9481'
p1571
I1453
sS'9480'
p1572
I1512
sS'9487'
p1573
I1765
sS'9486'
p1574
I1193
sS'9485'
p1575
I1800
sS'9484'
p1576
I1533
sS'9559'
p1577
I1256
sS'9558'
p1578
I1646
sS'9853'
p1579
I1412
sS'51897'
p1580
I306
sS'9551'
p1581
I1204
sS'9550'
p1582
I1020
sS'9553'
p1583
I1476
sS'9552'
p1584
I1747
sS'9555'
p1585
I1932
sS'9554'
p1586
I1591
sS'9557'
p1587
I1409
sS'9556'
p1588
I1420
sS'9731'
p1589
I1342
sS'9730'
p1590
I1034
sS'9733'
p1591
I1332
sS'9732'
p1592
I1608
sS'9735'
p1593
I1110
sS'9734'
p1594
I1557
sS'9737'
p1595
I1260
sS'9736'
p1596
I1361
sS'9739'
p1597
I1943
sS'9738'
p1598
I1209
sS'9854'
p1599
I1575
sS'10798'
p1600
I1811
sS'10799'
p1601
I1990
sS'10028'
p1602
I1419
sS'10029'
p1603
I1086
sS'10794'
p1604
I1538
sS'10027'
p1605
I1106
sS'10024'
p1606
I1025
sS'10025'
p1607
I1451
sS'10022'
p1608
I1164
sS'10791'
p1609
I1215
sS'10792'
p1610
I1666
sS'10021'
p1611
I1160
sS'40062'
p1612
I2271
sS'9856'
p1613
I1965
sS'38729'
p1614
I2779
sS'38728'
p1615
I2109
sS'38727'
p1616
I2794
sS'38726'
p1617
I2895
sS'38725'
p1618
I2858
sS'38724'
p1619
I2439
sS'38723'
p1620
I2434
sS'38632'
p1621
I2027
sS'38721'
p1622
I2636
sS'38720'
p1623
I2018
sS'39669'
p1624
I2096
sS'39668'
p1625
I2258
sS'39661'
p1626
I2467
sS'39660'
p1627
I2108
sS'39663'
p1628
I2461
sS'39662'
p1629
I2034
sS'39665'
p1630
I2727
sS'39664'
p1631
I2962
sS'39667'
p1632
I2350
sS'39666'
p1633
I2826
sS'38334'
p1634
I2035
sS'37918'
p1635
I2338
sS'10905'
p1636
I1786
sS'52313'
p1637
I816
sS'10907'
p1638
I1759
sS'10906'
p1639
I1757
sS'38830'
p1640
I2589
sS'37916'
p1641
I2177
sS'10903'
p1642
I1565
sS'38489'
p1643
I2234
sS'50530'
p1644
I469
sS'38337'
p1645
I2546
sS'51558'
p1646
I724
sS'9814'
p1647
I1818
sS'39041'
p1648
I2594
sS'51554'
p1649
I491
sS'9816'
p1650
I1644
sS'9817'
p1651
I1568
sS'50488'
p1652
I344
sS'50489'
p1653
I523
sS'50484'
p1654
I613
sS'51551'
p1655
I529
sS'50486'
p1656
I676
sS'50487'
p1657
I308
sS'50480'
p1658
I420
sS'10863'
p1659
I1982
sS'50482'
p1660
I685
sS'50483'
p1661
I302
sS'39040'
p1662
I2090
sS'51553'
p1663
I349
sS'38331'
p1664
I2576
sS'9813'
p1665
I1694
sS'50552'
p1666
I900
sS'9838'
p1667
I1151
sS'51578'
p1668
I543
sS'10128'
p1669
I1597
sS'9539'
p1670
I1969
sS'51573'
p1671
I252
sS'51572'
p1672
I582
sS'51571'
p1673
I385
sS'51570'
p1674
I291
sS'51577'
p1675
I985
sS'9837'
p1676
I1360
sS'9834'
p1677
I1059
sS'51574'
p1678
I852
sS'38217'
p1679
I2957
sS'38216'
p1680
I2871
sS'38215'
p1681
I2569
sS'38214'
p1682
I2235
sS'38338'
p1683
I2829
sS'38219'
p1684
I2971
sS'38218'
p1685
I2475
sS'52109'
p1686
I166
sS'39625'
p1687
I2462
sS'9534'
p1688
I1844
sS'38681'
p1689
I2401
sS'39627'
p1690
I2006
sS'51681'
p1691
I365
sS'51680'
p1692
I981
sS'51683'
p1693
I138
sS'51682'
p1694
I228
sS'51685'
p1695
I763
sS'51684'
p1696
I390
sS'51687'
p1697
I432
sS'51686'
p1698
I300
sS'51689'
p1699
I40
sS'51688'
p1700
I541
sS'38336'
p1701
I2507
sS'39620'
p1702
I2547
sS'9906'
p1703
I1529
sS'9907'
p1704
I1736
sS'9904'
p1705
I1977
sS'9905'
p1706
I1729
sS'9902'
p1707
I1907
sS'9903'
p1708
I1664
sS'9900'
p1709
I1191
sS'9901'
p1710
I1525
sS'39078'
p1711
I2489
sS'38330'
p1712
I2605
sS'39622'
p1713
I2087
sS'9908'
p1714
I1998
sS'9909'
p1715
I1244
sS'38332'
p1716
I2107
sS'38333'
p1717
I2998
sS'38425'
p1718
I2441
sS'38921'
p1719
I2457
sS'38920'
p1720
I2353
sS'38923'
p1721
I2577
sS'38922'
p1722
I2942
sS'38925'
p1723
I2615
sS'38924'
p1724
I2595
sS'38839'
p1725
I2309
sS'38926'
p1726
I2832
sS'38929'
p1727
I2341
sS'39629'
p1728
I2885
sS'39628'
p1729
I2691
sS'38583'
p1730
I2450
sS'38765'
p1731
I2492
sS'38582'
p1732
I2267
sS'38764'
p1733
I2329
sS'38853'
p1734
I2407
sS'38852'
p1735
I2898
sS'38838'
p1736
I2399
sS'39047'
p1737
I2056
sS'38855'
p1738
I2933
sS'38854'
p1739
I2197
sS'51753'
p1740
I426
sS'51752'
p1741
I284
sS'51751'
p1742
I585
sS'51750'
p1743
I425
sS'51757'
p1744
I731
sS'51756'
p1745
I55
sS'51979'
p1746
I788
sS'51754'
p1747
I715
sS'51977'
p1748
I468
sS'51976'
p1749
I691
sS'51975'
p1750
I890
sS'51974'
p1751
I262
sS'51973'
p1752
I963
sS'51972'
p1753
I906
sS'51970'
p1754
I804
sS'39046'
p1755
I2205
sS'52406'
p1756
I539
sS'52407'
p1757
I333
sS'52404'
p1758
I861
sS'52405'
p1759
I438
sS'52402'
p1760
I395
sS'52403'
p1761
I4
sS'51995'
p1762
I85
sS'51994'
p1763
I500
sS'51997'
p1764
I667
sS'51996'
p1765
I506
sS'51991'
p1766
I656
sS'51990'
p1767
I880
sS'51993'
p1768
I909
sS'51992'
p1769
I421
sS'51999'
p1770
I978
sS'51998'
p1771
I221
sS'52082'
p1772
I958
sS'52083'
p1773
I957
sS'52080'
p1774
I597
sS'52081'
p1775
I627
sS'52086'
p1776
I654
sS'52087'
p1777
I912
sS'52084'
p1778
I460
sS'52085'
p1779
I271
sS'52088'
p1780
I952
sS'52089'
p1781
I459
sS'52312'
p1782
I965
sS'10904'
p1783
I1023
sS'52310'
p1784
I703
sS'52311'
p1785
I437
sS'52316'
p1786
I207
sS'52317'
p1787
I779
sS'52314'
p1788
I16
sS'52315'
p1789
I332
sS'52318'
p1790
I388
sS'52319'
p1791
I3
sS'10909'
p1792
I1444
sS'10908'
p1793
I1938
sS'10650'
p1794
I1146
sS'38859'
p1795
I2024
sS'38858'
p1796
I2423
sS'38589'
p1797
I2206
sS'38588'
p1798
I2602
sS'38490'
p1799
I2550
sS'51963'
p1800
I737
sS'38851'
p1801
I2237
sS'38850'
p1802
I2131
sS'38581'
p1803
I2125
sS'38580'
p1804
I2047
sS'38587'
p1805
I2732
sS'38586'
p1806
I2181
sS'38857'
p1807
I2347
sS'38856'
p1808
I2210
sS'51964'
p1809
I161
sS'9582'
p1810
I1763
sS'9583'
p1811
I1347
sS'10019'
p1812
I1351
sS'10018'
p1813
I1372
sS'9586'
p1814
I1496
sS'9587'
p1815
I1033
sS'9584'
p1816
I1534
sS'9585'
p1817
I1588
sS'10013'
p1818
I1325
sS'10012'
p1819
I1321
sS'10011'
p1820
I1363
sS'10010'
p1821
I1217
sS'10017'
p1822
I1839
sS'10016'
p1823
I1519
sS'10015'
p1824
I1833
sS'10014'
p1825
I1845
sS'38455'
p1826
I2698
sS'38454'
p1827
I2239
sS'38457'
p1828
I2969
sS'38456'
p1829
I2008
sS'38451'
p1830
I2420
sS'38450'
p1831
I2335
sS'38453'
p1832
I2411
sS'38452'
p1833
I2483
sS'38459'
p1834
I2625
sS'38458'
p1835
I2736
sS'51709'
p1836
I119
sS'38738'
p1837
I2831
sS'38739'
p1838
I2323
sS'38730'
p1839
I2713
sS'38731'
p1840
I2851
sS'38732'
p1841
I2207
sS'38733'
p1842
I2481
sS'38734'
p1843
I2990
sS'38735'
p1844
I2575
sS'38736'
p1845
I2427
sS'38737'
p1846
I2757
sS'39672'
p1847
I2189
sS'39673'
p1848
I2588
sS'39670'
p1849
I2699
sS'39671'
p1850
I2233
sS'39676'
p1851
I2384
sS'39677'
p1852
I2899
sS'39674'
p1853
I2697
sS'39675'
p1854
I2344
sS'9823'
p1855
I1994
sS'9882'
p1856
I1922
sS'38496'
p1857
I2767
sS'39052'
p1858
I2687
sS'39053'
p1859
I2500
sS'39050'
p1860
I2132
sS'39051'
p1861
I2052
sS'39056'
p1862
I2002
sS'9580'
p1863
I1503
sS'39057'
p1864
I2426
sS'9581'
p1865
I1775
sS'39054'
p1866
I2100
sS'39055'
p1867
I2874
sS'9588'
p1868
I1819
sS'9589'
p1869
I1324
sS'52276'
p1870
I410
sS'38609'
p1871
I2758
sS'51564'
p1872
I411
sS'9824'
p1873
I1093
sS'9827'
p1874
I1046
sS'51567'
p1875
I774
sS'51560'
p1876
I751
sS'9820'
p1877
I1032
sS'51562'
p1878
I368
sS'51563'
p1879
I586
sS'51568'
p1880
I273
sS'51569'
p1881
I792
sS'51692'
p1882
I434
sS'51693'
p1883
I57
sS'51690'
p1884
I954
sS'51691'
p1885
I988
sS'51697'
p1886
I361
sS'51694'
p1887
I966
sS'51695'
p1888
I930
sS'51698'
p1889
I235
sS'51699'
p1890
I445
sS'9911'
p1891
I1773
sS'9910'
p1892
I1671
sS'9913'
p1893
I1499
sS'9912'
p1894
I1026
sS'9915'
p1895
I1145
sS'9914'
p1896
I1648
sS'9917'
p1897
I1279
sS'9916'
p1898
I1535
sS'9919'
p1899
I1066
sS'9918'
p1900
I1717
sS'39081'
p1901
I2022
sS'39080'
p1902
I2046
sS'39083'
p1903
I2848
sS'39082'
p1904
I2140
sS'39037'
p1905
I2404
sS'38932'
p1906
I2044
sS'38933'
p1907
I2734
sS'38930'
p1908
I2604
sS'38931'
p1909
I2298
sS'38936'
p1910
I2960
sS'38937'
p1911
I2806
sS'38934'
p1912
I2334
sS'38935'
p1913
I2718
sS'38938'
p1914
I2080
sS'38939'
p1915
I2930
sS'9843'
p1916
I1720
sS'38592'
p1917
I2735
sS'9842'
p1918
I1303
sS'9841'
p1919
I1304
sS'51968'
p1920
I341
sS'51969'
p1921
I822
sS'10868'
p1922
I1437
sS'10869'
p1923
I1177
sS'51748'
p1924
I548
sS'51749'
p1925
I877
sS'51744'
p1926
I681
sS'51961'
p1927
I261
sS'51962'
p1928
I14
sS'51747'
p1929
I247
sS'10866'
p1930
I1103
sS'51965'
p1931
I196
sS'51966'
p1932
I615
sS'10865'
p1933
I1278
sS'52439'
p1934
I33
sS'52438'
p1935
I94
sS'9845'
p1936
I1779
sS'52433'
p1937
I13
sS'10119'
p1938
I1702
sS'9844'
p1939
I1641
sS'52437'
p1940
I427
sS'52436'
p1941
I853
sS'52435'
p1942
I59
sS'52434'
p1943
I497
sS'51986'
p1944
I67
sS'51987'
p1945
I490
sS'51984'
p1946
I986
sS'51985'
p1947
I535
sS'51982'
p1948
I833
sS'51983'
p1949
I260
sS'51980'
p1950
I157
sS'51981'
p1951
I74
sS'9849'
p1952
I1617
sS'51988'
p1953
I707
sS'51989'
p1954
I449
sS'10813'
p1955
I1142
sS'9848'
p1956
I1629
sS'52209'
p1957
I293
sS'51953'
p1958
I49
sS'10810'
p1959
I1147
sS'52329'
p1960
I736
sS'52328'
p1961
I350
sS'52327'
p1962
I131
sS'52326'
p1963
I224
sS'52325'
p1964
I454
sS'52324'
p1965
I186
sS'52323'
p1966
I288
sS'52322'
p1967
I28
sS'52321'
p1968
I926
sS'51770'
p1969
I246
sS'52055'
p1970
I378
sS'52054'
p1971
I448
sS'52057'
p1972
I689
sS'52056'
p1973
I826
sS'52051'
p1974
I929
sS'51773'
p1975
I807
sS'10648'
p1976
I1315
sS'52052'
p1977
I607
sS'10646'
p1978
I1457
sS'10647'
p1979
I1616
sS'9139'
p1980
I1199
sS'51772'
p1981
I342
sS'10642'
p1982
I1196
sS'10643'
p1983
I1119
sS'10640'
p1984
I1439
sS'10641'
p1985
I1730
sS'51890'
p1986
I819
sS'38848'
p1987
I2176
sS'38849'
p1988
I2674
sS'51675'
p1989
I684
sS'38842'
p1990
I2231
sS'38843'
p1991
I2158
sS'38840'
p1992
I2527
sS'38841'
p1993
I2570
sS'38846'
p1994
I2532
sS'51676'
p1995
I263
sS'38844'
p1996
I2228
sS'38845'
p1997
I2241
sS'38631'
p1998
I2958
sS'51677'
p1999
I294
sS'38630'
p2000
I2354
sS'51894'
p2001
I551
sS'38808'
p2002
I2919
sS'38633'
p2003
I2278
sS'51778'
p2004
I809
sS'52189'
p2005
I521
sS'52188'
p2006
I524
sS'51896'
p2007
I297
sS'52183'
p2008
I78
sS'52182'
p2009
I583
sS'52181'
p2010
I132
sS'52180'
p2011
I430
sS'52187'
p2012
I959
sS'52186'
p2013
I377
sS'52185'
p2014
I109
sS'52184'
p2015
I526
sS'10004'
p2016
I1349
sS'10005'
p2017
I1657
sS'10006'
p2018
I1939
sS'10007'
p2019
I1039
sS'10000'
p2020
I1306
sS'10001'
p2021
I1628
sS'10002'
p2022
I1957
sS'10003'
p2023
I1755
sS'38809'
p2024
I2030
sS'38636'
p2025
I2835
sS'10008'
p2026
I1402
sS'10009'
p2027
I1144
sS'9599'
p2028
I1580
sS'9598'
p2029
I1873
sS'9595'
p2030
I1038
sS'9594'
p2031
I1436
sS'9597'
p2032
I1805
sS'9596'
p2033
I1790
sS'9591'
p2034
I1501
sS'9590'
p2035
I1679
sS'9593'
p2036
I1443
sS'9592'
p2037
I1812
sS'38446'
p2038
I2019
sS'38447'
p2039
I2160
sS'38444'
p2040
I2719
sS'38445'
p2041
I2304
sS'38442'
p2042
I2675
sS'38443'
p2043
I2089
sS'38440'
p2044
I2619
sS'38441'
p2045
I2601
sS'38889'
p2046
I2168
sS'38448'
p2047
I2626
sS'38449'
p2048
I2201
sS'38886'
p2049
I2425
sS'38269'
p2050
I2830
sS'38599'
p2051
I2367
sS'38887'
p2052
I2557
sS'38608'
p2053
I2896
sS'38884'
p2054
I2476
sS'38885'
p2055
I2773
sS'38882'
p2056
I2424
sS'38883'
p2057
I2628
sS'39647'
p2058
I2955
sS'39646'
p2059
I2845
sS'39645'
p2060
I2469
sS'39644'
p2061
I2195
sS'39643'
p2062
I2905
sS'38880'
p2063
I2456
sS'39641'
p2064
I2004
sS'39640'
p2065
I2000
sS'38881'
p2066
I2799
sS'10110'
p2067
I1337
sS'39649'
p2068
I2184
sS'39648'
p2069
I2934
sS'39626'
p2070
I2485
sS'10111'
p2071
I1422
sS'38265'
p2072
I2616
sS'39022'
p2073
I2113
sS'39621'
p2074
I2672
sS'38313'
p2075
I2447
sS'37952'
p2076
I2162
sS'37261'
p2077
I2847
sS'39500'
p2078
I2076
sS'39021'
p2079
I2196
sS'38697'
p2080
I2051
sS'38696'
p2081
I2060
sS'38695'
p2082
I2084
sS'38694'
p2083
I2318
sS'38693'
p2084
I2822
sS'38692'
p2085
I2040
sS'38691'
p2086
I2106
sS'38690'
p2087
I2531
sS'38699'
p2088
I2120
sS'38698'
p2089
I2914
sS'40008'
p2090
I2480
sS'39623'
p2091
I2159
sS'10026'
p2092
I1857
sS'51511'
p2093
I111
sS'51510'
p2094
I236
sS'51513'
p2095
I977
sS'51512'
p2096
I380
sS'51515'
p2097
I982
sS'9855'
p2098
I1071
sS'51517'
p2099
I30
sS'9857'
p2100
I1262
sS'51519'
p2101
I18
sS'51518'
p2102
I883
sS'38811'
p2103
I2924
sS'38279'
p2104
I2811
sS'38278'
p2105
I2174
sS'38271'
p2106
I2716
sS'38270'
p2107
I2966
sS'38273'
p2108
I2929
sS'38272'
p2109
I2255
sS'38275'
p2110
I2660
sS'38274'
p2111
I2797
sS'38277'
p2112
I2846
sS'38276'
p2113
I2375
sS'38540'
p2114
I2488
sS'38810'
p2115
I2996
sS'9500'
p2116
I1725
sS'38263'
p2117
I2478
sS'38305'
p2118
I2920
sS'38304'
p2119
I2952
sS'38307'
p2120
I2164
sS'38306'
p2121
I2820
sS'38301'
p2122
I2033
sS'38300'
p2123
I2295
sS'38303'
p2124
I2585
sS'38302'
p2125
I2460
sS'9501'
p2126
I1931
sS'38309'
p2127
I2763
sS'38308'
p2128
I2147
sS'10048'
p2129
I1903
sS'38909'
p2130
I2780
sS'10049'
p2131
I1560
sS'38907'
p2132
I2772
sS'38906'
p2133
I2918
sS'38905'
p2134
I2134
sS'38904'
p2135
I2709
sS'38903'
p2136
I2444
sS'38902'
p2137
I2442
sS'38901'
p2138
I2524
sS'38900'
p2139
I2849
sS'52208'
p2140
I486
sS'9506'
p2141
I1428
sS'10857'
p2142
I1094
sS'10856'
p2143
I1140
sS'10855'
p2144
I1915
sS'10854'
p2145
I1820
sS'10853'
p2146
I1433
sS'10852'
p2147
I1176
sS'10851'
p2148
I1318
sS'10850'
p2149
I1163
sS'10859'
p2150
I1021
sS'10858'
p2151
I1267
sS'51739'
p2152
I329
sS'51738'
p2153
I63
sS'9507'
p2154
I1685
sS'51731'
p2155
I226
sS'51730'
p2156
I621
sS'51733'
p2157
I223
sS'51732'
p2158
I266
sS'51735'
p2159
I507
sS'51734'
p2160
I232
sS'51737'
p2161
I164
sS'51736'
p2162
I787
sS'10043'
p2163
I1758
sS'10044'
p2164
I1339
sS'38927'
p2165
I2720
sS'10045'
p2166
I1379
sS'10046'
p2167
I1270
sS'10731'
p2168
I1494
sS'38606'
p2169
I2506
sS'38833'
p2170
I2590
sS'38832'
p2171
I2508
sS'9171'
p2172
I1912
sS'38831'
p2173
I2083
sS'38605'
p2174
I2374
sS'52338'
p2175
I716
sS'51644'
p2176
I472
sS'51647'
p2177
I973
sS'51646'
p2178
I636
sS'51641'
p2179
I887
sS'51640'
p2180
I903
sS'51643'
p2181
I372
sS'51642'
p2182
I785
sS'52330'
p2183
I968
sS'52331'
p2184
I547
sS'52332'
p2185
I972
sS'52333'
p2186
I359
sS'51649'
p2187
I623
sS'51648'
p2188
I646
sS'52336'
p2189
I386
sS'52337'
p2190
I371
sS'52046'
p2191
I998
sS'52047'
p2192
I748
sS'52044'
p2193
I525
sS'52045'
p2194
I61
sS'52042'
p2195
I127
sS'52043'
p2196
I396
sS'52040'
p2197
I163
sS'52041'
p2198
I601
sS'9454'
p2199
I1035
sS'9455'
p2200
I1509
sS'9456'
p2201
I1272
sS'9457'
p2202
I1924
sS'9450'
p2203
I1968
sS'9451'
p2204
I1940
sS'52048'
p2205
I651
sS'52049'
p2206
I27
sS'9142'
p2207
I1781
sS'50550'
p2208
I994
sS'9491'
p2209
I1510
sS'9492'
p2210
I1984
sS'38819'
p2211
I2472
sS'52194'
p2212
I694
sS'52196'
p2213
I399
sS'52197'
p2214
I70
sS'52190'
p2215
I675
sS'52191'
p2216
I560
sS'52192'
p2217
I811
sS'52193'
p2218
I245
sS'9146'
p2219
I1809
sS'52198'
p2220
I818
sS'52199'
p2221
I938
sS'9495'
p2222
I1704
sS'9839'
p2223
I1585
sS'9496'
p2224
I1962
sS'9497'
p2225
I1753
sS'38818'
p2226
I2681
sS'10071'
p2227
I1870
sS'10070'
p2228
I1224
sS'10073'
p2229
I1637
sS'10072'
p2230
I1593
sS'10075'
p2231
I1853
sS'10074'
p2232
I1248
sS'10076'
p2233
I1721
sS'10079'
p2234
I1841
sS'10078'
p2235
I1506
sS'38473'
p2236
I2737
sS'38472'
p2237
I2682
sS'38471'
p2238
I2696
sS'38470'
p2239
I2299
sS'38477'
p2240
I2683
sS'38476'
p2241
I2358
sS'38475'
p2242
I2116
sS'38474'
p2243
I2376
sS'38479'
p2244
I2693
sS'38478'
p2245
I2866
sS'9698'
p2246
I1517
sS'9699'
p2247
I1875
sS'9696'
p2248
I1528
sS'9697'
p2249
I1286
sS'9694'
p2250
I1599
sS'9695'
p2251
I1569
sS'9692'
p2252
I1896
sS'9693'
p2253
I1707
sS'9690'
p2254
I1925
sS'9691'
p2255
I1577
sS'9674'
p2256
I1006
sS'9675'
p2257
I1040
sS'9676'
p2258
I1710
sS'9677'
p2259
I1352
sS'10109'
p2260
I1618
sS'10108'
p2261
I1281
sS'9672'
p2262
I1343
sS'9673'
p2263
I1161
sS'10105'
p2264
I1900
sS'10104'
p2265
I1630
sS'10107'
p2266
I1104
sS'10106'
p2267
I1771
sS'10101'
p2268
I1688
sS'10100'
p2269
I1232
sS'10103'
p2270
I1899
sS'10102'
p2271
I1770
sS'9465'
p2272
I1598
sS'10603'
p2273
I1973
sS'9467'
p2274
I1134
sS'10601'
p2275
I1916
sS'9461'
p2276
I1264
sS'9460'
p2277
I1543
sS'37919'
p2278
I2726
sS'9548'
p2279
I1284
sS'37915'
p2280
I2150
sS'37914'
p2281
I2305
sS'37917'
p2282
I2029
sS'9549'
p2283
I1856
sS'37913'
p2284
I2970
sS'9546'
p2285
I1802
sS'52159'
p2286
I398
sS'38680'
p2287
I2124
sS'52203'
p2288
I211
sS'38682'
p2289
I2819
sS'38683'
p2290
I2534
sS'38684'
p2291
I2863
sS'38685'
p2292
I2775
sS'38686'
p2293
I2202
sS'38687'
p2294
I2085
sS'38688'
p2295
I2612
sS'38689'
p2296
I2728
sS'9474'
p2297
I1791
sS'39038'
p2298
I2138
sS'39039'
p2299
I2145
sS'39012'
p2300
I2953
sS'51502'
p2301
I240
sS'51503'
p2302
I256
sS'51500'
p2303
I781
sS'51501'
p2304
I239
sS'51506'
p2305
I209
sS'51507'
p2306
I564
sS'51504'
p2307
I416
sS'51505'
p2308
I530
sS'51508'
p2309
I920
sS'51509'
p2310
I967
sS'39036'
p2311
I2236
sS'39013'
p2312
I2378
sS'38268'
p2313
I2319
sS'37923'
p2314
I2608
sS'38262'
p2315
I2538
sS'10039'
p2316
I1143
sS'38260'
p2317
I2715
sS'38261'
p2318
I2213
sS'38266'
p2319
I2567
sS'38267'
p2320
I2433
sS'38264'
p2321
I2981
sS'10786'
p2322
I1848
sS'51951'
p2323
I908
sS'10789'
p2324
I1913
sS'10788'
p2325
I1983
sS'38316'
p2326
I2448
sS'38317'
p2327
I2932
sS'38314'
p2328
I2764
sS'38315'
p2329
I2088
sS'38312'
p2330
I2414
sS'51950'
p2331
I222
sS'38310'
p2332
I2330
sS'38311'
p2333
I2279
sS'38318'
p2334
I2408
sS'38319'
p2335
I2875
sS'38918'
p2336
I2179
sS'38919'
p2337
I2473
sS'38910'
p2338
I2909
sS'38911'
p2339
I2853
sS'38912'
p2340
I2906
sS'38913'
p2341
I2985
sS'38914'
p2342
I2479
sS'38915'
p2343
I2123
sS'38916'
p2344
I2240
sS'38917'
p2345
I2537
sS'38535'
p2346
I2765
sS'10840'
p2347
I1060
sS'10841'
p2348
I1047
sS'10842'
p2349
I1479
sS'10843'
p2350
I1846
sS'10844'
p2351
I1212
sS'10845'
p2352
I1172
sS'10846'
p2353
I1699
sS'10847'
p2354
I1010
sS'10848'
p2355
I1760
sS'10849'
p2356
I1384
sS'38614'
p2357
I2218
sS'51728'
p2358
I686
sS'51729'
p2359
I700
sS'51722'
p2360
I869
sS'51723'
p2361
I392
sS'51720'
p2362
I289
sS'51721'
p2363
I951
sS'51726'
p2364
I950
sS'51727'
p2365
I517
sS'51724'
p2366
I687
sS'51725'
p2367
I46
sS'52297'
p2368
I149
sS'52296'
p2369
I171
sS'52295'
p2370
I843
sS'52294'
p2371
I439
sS'52293'
p2372
I250
sS'52292'
p2373
I394
sS'52291'
p2374
I889
sS'52290'
p2375
I2
sS'52299'
p2376
I134
sS'52298'
p2377
I836
sS'38611'
p2378
I2791
sS'38612'
p2379
I2026
sS'51656'
p2380
I478
sS'51657'
p2381
I35
sS'51654'
p2382
I403
sS'51655'
p2383
I510
sS'51652'
p2384
I447
sS'51653'
p2385
I518
sS'51650'
p2386
I899
sS'51651'
p2387
I213
sS'10934'
p2388
I1930
sS'10935'
p2389
I1653
sS'10936'
p2390
I1482
sS'10937'
p2391
I1350
sS'51658'
p2392
I348
sS'51659'
p2393
I37
sS'52073'
p2394
I257
sS'52072'
p2395
I927
sS'52071'
p2396
I442
sS'52070'
p2397
I172
sS'52077'
p2398
I82
sS'52076'
p2399
I640
sS'52075'
p2400
I199
sS'52074'
p2401
I608
sS'38868'
p2402
I2995
sS'38869'
p2403
I2665
sS'52079'
p2404
I147
sS'52078'
p2405
I498
sS'9825'
p2406
I1620
sS'51565'
p2407
I10
sS'51566'
p2408
I301
sS'9826'
p2409
I1783
sS'9821'
p2410
I1680
sS'51561'
p2411
I187
sS'10062'
p2412
I1651
sS'10063'
p2413
I1052
sS'10060'
p2414
I1312
sS'10061'
p2415
I1731
sS'10066'
p2416
I1471
sS'10067'
p2417
I1552
sS'10064'
p2418
I1475
sS'10065'
p2419
I1107
sS'10068'
p2420
I1305
sS'9822'
p2421
I1551
sS'51671'
p2422
I130
sS'10835'
p2423
I1776
sS'38585'
p2424
I2574
sS'38468'
p2425
I2359
sS'51958'
p2426
I75
sS'10834'
p2427
I1045
sS'38464'
p2428
I2453
sS'9829'
p2429
I1423
sS'38466'
p2430
I2613
sS'38467'
p2431
I2544
sS'38460'
p2432
I2302
sS'10837'
p2433
I1124
sS'38462'
p2434
I2105
sS'9828'
p2435
I1123
sS'9689'
p2436
I1004
sS'9688'
p2437
I1387
sS'10836'
p2438
I1326
sS'10660'
p2439
I1886
sS'10661'
p2440
I1252
sS'10662'
p2441
I1880
sS'10663'
p2442
I1545
sS'9681'
p2443
I1469
sS'9680'
p2444
I1118
sS'9683'
p2445
I1548
sS'9682'
p2446
I1654
sS'9685'
p2447
I1830
sS'9684'
p2448
I1636
sS'9687'
p2449
I1186
sS'10830'
p2450
I1100
sS'38584'
p2451
I2327
sS'10833'
p2452
I1991
sS'10832'
p2453
I1169
sS'9667'
p2454
I1064
sS'9666'
p2455
I1605
sS'9665'
p2456
I1381
sS'9664'
p2457
I1888
sS'9663'
p2458
I1385
sS'9662'
p2459
I1609
sS'9661'
p2460
I1228
sS'52218'
p2461
I790
sS'10116'
p2462
I1156
sS'10117'
p2463
I1091
sS'10114'
p2464
I1796
sS'10115'
p2465
I1481
sS'10112'
p2466
I1477
sS'10113'
p2467
I1587
sS'9669'
p2468
I1239
sS'9668'
p2469
I1069
sS'9809'
p2470
I1676
sS'10598'
p2471
I1993
sS'10933'
p2472
I1684
sS'10733'
p2473
I1774
sS'38860'
p2474
I2073
sS'38861'
p2475
I2700
sS'38862'
p2476
I2050
sS'38863'
p2477
I2927
sS'38864'
p2478
I2777
sS'38865'
p2479
I2925
sS'38679'
p2480
I2551
sS'38678'
p2481
I2194
sS'38675'
p2482
I2115
sS'38674'
p2483
I2946
sS'38677'
p2484
I2776
sS'38867'
p2485
I2474
sS'38671'
p2486
I2991
sS'38670'
p2487
I2514
sS'38673'
p2488
I2855
sS'38672'
p2489
I2454
sS'9807'
p2490
I1926
sS'40027'
p2491
I2553
sS'38758'
p2492
I2812
sS'38661'
p2493
I2825
sS'9806'
p2494
I1722
sS'38789'
p2495
I2317
sS'38788'
p2496
I2396
sS'39615'
p2497
I2256
sS'38781'
p2498
I2983
sS'38780'
p2499
I2653
sS'38783'
p2500
I2778
sS'38782'
p2501
I2490
sS'38785'
p2502
I2170
sS'38784'
p2503
I2965
sS'38787'
p2504
I2664
sS'38786'
p2505
I2199
sS'39006'
p2506
I2058
sS'9878'
p2507
I1063
sS'51538'
p2508
I907
sS'51537'
p2509
I639
sS'51536'
p2510
I146
sS'51535'
p2511
I194
sS'51534'
p2512
I314
sS'51533'
p2513
I219
sS'51532'
p2514
I825
sS'51531'
p2515
I401
sS'51530'
p2516
I661
sS'38257'
p2517
I2276
sS'38256'
p2518
I2541
sS'38255'
p2519
I2836
sS'38254'
p2520
I2703
sS'38253'
p2521
I2380
sS'38252'
p2522
I2621
sS'38251'
p2523
I2543
sS'38250'
p2524
I2501
sS'38627'
p2525
I2647
sS'38259'
p2526
I2578
sS'38258'
p2527
I2666
sS'38099'
p2528
I2761
sS'38624'
p2529
I2789
sS'39000'
p2530
I2807
sS'38625'
p2531
I2943
sS'38323'
p2532
I2935
sS'38322'
p2533
I2226
sS'38321'
p2534
I2872
sS'38320'
p2535
I2163
sS'38327'
p2536
I2518
sS'38326'
p2537
I2261
sS'38325'
p2538
I2294
sS'38324'
p2539
I2729
sS'10645'
p2540
I1872
sS'38328'
p2541
I2530
sS'51743'
p2542
I53
sS'51717'
p2543
I175
sS'51716'
p2544
I17
sS'51715'
p2545
I987
sS'51714'
p2546
I625
sS'51713'
p2547
I665
sS'51712'
p2548
I559
sS'51711'
p2549
I197
sS'51710'
p2550
I761
sS'51719'
p2551
I52
sS'51718'
p2552
I870
sS'9894'
p2553
I1294
sS'9895'
p2554
I1105
sS'9896'
p2555
I1756
sS'51084'
p2556
I595
sS'9890'
p2557
I1817
sS'9891'
p2558
I1564
sS'9892'
p2559
I1448
sS'9893'
p2560
I1703
sS'51665'
p2561
I614
sS'9898'
p2562
I1008
sS'9899'
p2563
I1359
sS'52283'
p2564
I39
sS'52284'
p2565
I513
sS'52285'
p2566
I286
sS'52286'
p2567
I355
sS'52287'
p2568
I68
sS'52288'
p2569
I322
sS'52289'
p2570
I923
sS'51663'
p2571
I84
sS'51662'
p2572
I773
sS'51661'
p2573
I192
sS'51660'
p2574
I113
sS'51667'
p2575
I231
sS'51666'
p2576
I173
sS'51889'
p2577
I864
sS'51664'
p2578
I726
sS'51887'
p2579
I338
sS'51886'
p2580
I928
sS'51885'
p2581
I423
sS'51884'
p2582
I976
sS'51883'
p2583
I481
sS'51882'
p2584
I496
sS'51881'
p2585
I502
sS'51880'
p2586
I364
sS'9478'
p2587
I1220
sS'9479'
p2588
I1102
sS'52068'
p2589
I462
sS'52069'
p2590
I230
sS'52064'
p2591
I167
sS'52065'
p2592
I924
sS'9470'
p2593
I1049
sS'52067'
p2594
I435
sS'52060'
p2595
I279
sS'9477'
p2596
I1022
sS'52062'
p2597
I758
sS'52063'
p2598
I802
sS'51865'
p2599
I32
sS'51864'
p2600
I354
sS'51867'
p2601
I960
sS'51866'
p2602
I831
sS'51861'
p2603
I178
sS'51860'
p2604
I12
sS'51863'
p2605
I317
sS'51862'
p2606
I848
sS'10674'
p2607
I1624
sS'51869'
p2608
I733
sS'51868'
p2609
I485
sS'52442'
p2610
I886
sS'52443'
p2611
I798
sS'52440'
p2612
I455
sS'52441'
p2613
I617
sS'52446'
p2614
I670
sS'52444'
p2615
I815
sS'52445'
p2616
I511
sS'51922'
p2617
I674
sS'39008'
p2618
I2959
sS'10069'
p2619
I1737
sS'10729'
p2620
I1748
sS'10728'
p2621
I1640
sS'10059'
p2622
I1043
sS'10058'
p2623
I1579
sS'10057'
p2624
I1241
sS'10056'
p2625
I1768
sS'10055'
p2626
I1950
sS'10054'
p2627
I1088
sS'10053'
p2628
I1167
sS'10052'
p2629
I1258
sS'10723'
p2630
I1495
sS'10050'
p2631
I1370
sS'10725'
p2632
I1062
sS'38815'
p2633
I2219
sS'38814'
p2634
I2165
sS'38411'
p2635
I2274
sS'38410'
p2636
I2379
sS'38413'
p2637
I2834
sS'38412'
p2638
I2982
sS'38415'
p2639
I2788
sS'38414'
p2640
I2756
sS'38417'
p2641
I2385
sS'38416'
p2642
I2494
sS'10611'
p2643
I1638
sS'10610'
p2644
I1767
sS'10613'
p2645
I1859
sS'10612'
p2646
I1673
sS'10615'
p2647
I1711
sS'10614'
p2648
I1230
sS'10617'
p2649
I1408
sS'10616'
p2650
I1642
sS'10619'
p2651
I1150
sS'10618'
p2652
I1113
sS'38542'
p2653
I2166
sS'38813'
p2654
I2961
sS'38812'
p2655
I2012
sS'9652'
p2656
I1075
sS'9653'
p2657
I1096
sS'10129'
p2658
I1013
sS'9651'
p2659
I1300
sS'9656'
p2660
I1115
sS'9657'
p2661
I1070
sS'9654'
p2662
I1726
sS'9655'
p2663
I1353
sS'10123'
p2664
I1611
sS'10122'
p2665
I1333
sS'9658'
p2666
I1125
sS'9659'
p2667
I1216
sS'10127'
p2668
I1667
sS'10126'
p2669
I1572
sS'10125'
p2670
I1788
sS'10124'
p2671
I1368
sS'38525'
p2672
I2356
sS'38524'
p2673
I2086
sS'38527'
p2674
I2705
sS'10692'
p2675
I1963
sS'38521'
p2676
I2609
sS'38520'
p2677
I2283
sS'38523'
p2678
I2782
sS'37925'
p2679
I2573
sS'9160'
p2680
I1806
sS'9818'
p2681
I1881
sS'38529'
p2682
I2265
sS'38528'
p2683
I2482
sS'9161'
p2684
I1891
sS'9780'
p2685
I1445
sS'9781'
p2686
I1259
sS'9782'
p2687
I1136
sS'9783'
p2688
I1851
sS'9784'
p2689
I1396
sS'9785'
p2690
I1626
sS'9786'
p2691
I1520
sS'9787'
p2692
I1658
sS'9788'
p2693
I1395
sS'9789'
p2694
I1083
sS'9163'
p2695
I1527
sS'37939'
p2696
I2827
sS'37938'
p2697
I2364
sS'37933'
p2698
I2954
sS'9819'
p2699
I1576
sS'37931'
p2700
I2967
sS'37930'
p2701
I2266
sS'37937'
p2702
I2816
sS'37936'
p2703
I2041
sS'37935'
p2704
I2747
sS'37934'
p2705
I2128
sS'10726'
p2706
I1374
sS'38469'
p2707
I2348
sS'38668'
p2708
I2701
sS'38669'
p2709
I2340
sS'38666'
p2710
I2694
sS'38667'
p2711
I2208
sS'38664'
p2712
I2658
sS'38665'
p2713
I2746
sS'38662'
p2714
I2841
sS'38663'
p2715
I2624
sS'38660'
p2716
I2398
sS'37929'
p2717
I2533
sS'38465'
p2718
I2824
sS'38461'
p2719
I2690
sS'38463'
p2720
I2911
sS'10664'
p2721
I1246
sS'38798'
p2722
I2370
sS'38799'
p2723
I2312
sS'38792'
p2724
I2662
sS'38793'
p2725
I2293
sS'38790'
p2726
I2837
sS'38791'
p2727
I2204
sS'38796'
p2728
I2053
sS'38797'
p2729
I2152
sS'38794'
p2730
I2655
sS'38795'
p2731
I2075
sS'38607'
p2732
I2897
sS'51528'
p2733
I955
sS'51529'
p2734
I884
sS'51520'
p2735
I415
sS'51521'
p2736
I193
sS'51522'
p2737
I584
sS'51523'
p2738
I901
sS'51524'
p2739
I600
sS'51525'
p2740
I983
sS'51526'
p2741
I652
sS'51527'
p2742
I734
sS'38240'
p2743
I2099
sS'38241'
p2744
I2708
sS'38242'
p2745
I2311
sS'38243'
p2746
I2415
sS'38244'
p2747
I2039
sS'38245'
p2748
I2677
sS'38246'
p2749
I2222
sS'38247'
p2750
I2908
sS'38248'
p2751
I2560
sS'38249'
p2752
I2889
sS'38371'
p2753
I2938
sS'38635'
p2754
I2313
sS'9686'
p2755
I1895
sS'38634'
p2756
I2850
sS'50538'
p2757
I135
sS'39016'
p2758
I2668
sS'38649'
p2759
I2877
sS'39017'
p2760
I2487
sS'39014'
p2761
I2646
sS'39015'
p2762
I2540
sS'50439'
p2763
I735
sS'38339'
p2764
I2095
sS'38637'
p2765
I2890
sS'50435'
p2766
I941
sS'50539'
p2767
I631
sS'50437'
p2768
I690
sS'50436'
p2769
I148
sS'50431'
p2770
I791
sS'50430'
p2771
I713
sS'50433'
p2772
I23
sS'50432'
p2773
I360
sS'39010'
p2774
I2417
sS'39011'
p2775
I2657
sS'51960'
p2776
I849
sS'51745'
p2777
I594
sS'51746'
p2778
I752
sS'51700'
p2779
I269
sS'51701'
p2780
I218
sS'51702'
p2781
I871
sS'51703'
p2782
I827
sS'51704'
p2783
I277
sS'51705'
p2784
I768
sS'51706'
p2785
I464
sS'51707'
p2786
I104
sS'51708'
p2787
I9
sS'51740'
p2788
I711
sS'51741'
p2789
I21
sS'9887'
p2790
I1655
sS'9886'
p2791
I1283
sS'9885'
p2792
I1184
sS'9884'
p2793
I1946
sS'9883'
p2794
I1480
sS'51742'
p2795
I683
sS'9881'
p2796
I1087
sS'9880'
p2797
I1007
sS'51967'
p2798
I65
sS'9889'
p2799
I1406
sS'9888'
p2800
I1399
sS'10118'
p2801
I1334
sS'52275'
p2802
I56
sS'52274'
p2803
I184
sS'9660'
p2804
I1080
sS'52271'
p2805
I602
sS'52270'
p2806
I54
sS'52273'
p2807
I835
sS'52272'
p2808
I948
sS'38600'
p2809
I2129
sS'38601'
p2810
I2750
sS'38602'
p2811
I2198
sS'38603'
p2812
I2770
sS'38604'
p2813
I2230
sS'10862'
p2814
I1649
sS'51898'
p2815
I36
sS'51899'
p2816
I362
sS'51678'
p2817
I137
sS'51679'
p2818
I125
sS'51674'
p2819
I984
sS'51891'
p2820
I971
sS'51892'
p2821
I786
sS'51893'
p2822
I276
sS'51670'
p2823
I796
sS'51895'
p2824
I375
sS'51672'
p2825
I544
sS'51673'
p2826
I882
sS'52019'
p2827
I169
sS'52018'
p2828
I443
sS'38888'
p2829
I2641
sS'51955'
p2830
I795
sS'52011'
p2831
I325
sS'52010'
p2832
I272
sS'52013'
p2833
I50
sS'52012'
p2834
I326
sS'52015'
p2835
I225
sS'52014'
p2836
I384
sS'52017'
p2837
I916
sS'52016'
p2838
I975
sS'51876'
p2839
I671
sS'51877'
p2840
I198
sS'51874'
p2841
I391
sS'51875'
p2842
I757
sS'51872'
p2843
I76
sS'51873'
p2844
I846
sS'51870'
p2845
I577
sS'51871'
p2846
I709
sS'10820'
p2847
I1996
sS'51878'
p2848
I893
sS'51879'
p2849
I153
sS'38987'
p2850
I2307
sS'38986'
p2851
I2049
sS'52125'
p2852
I304
sS'52124'
p2853
I598
sS'52127'
p2854
I834
sS'52126'
p2855
I756
sS'52121'
p2856
I895
sS'52120'
p2857
I357
sS'52123'
p2858
I501
sS'52122'
p2859
I961
sS'10040'
p2860
I1112
sS'10041'
p2861
I1670
sS'10734'
p2862
I1271
sS'10735'
p2863
I1438
sS'10732'
p2864
I1227
sS'52128'
p2865
I321
sS'10730'
p2866
I1362
sS'10047'
p2867
I1192
sS'38408'
p2868
I2915
sS'38409'
p2869
I2252
sS'38402'
p2870
I2360
sS'38403'
p2871
I2232
sS'38400'
p2872
I2904
sS'38401'
p2873
I2351
sS'38406'
p2874
I2253
sS'38407'
p2875
I2355
sS'38404'
p2876
I2031
sS'38405'
p2877
I2470
sS'10602'
p2878
I1435
sS'9464'
p2879
I1789
sS'10600'
p2880
I1054
sS'9466'
p2881
I1454
sS'10606'
p2882
I1180
sS'10607'
p2883
I1462
sS'10604'
p2884
I1854
sS'10605'
p2885
I1592
sS'10608'
p2886
I1744
sS'10609'
p2887
I1455
sS'9469'
p2888
I1171
sS'9468'
p2889
I1700
sS'10134'
p2890
I1202
sS'10135'
p2891
I1911
sS'10136'
p2892
I1561
sS'10137'
p2893
I1928
sS'10130'
p2894
I1908
sS'10131'
p2895
I1253
sS'10132'
p2896
I1211
sS'10133'
p2897
I1697
sS'10138'
p2898
I1813
sS'10139'
p2899
I1945
sS'9649'
p2900
I1222
sS'9648'
p2901
I1944
sS'9645'
p2902
I1468
sS'9644'
p2903
I1660
sS'9647'
p2904
I1889
sS'9646'
p2905
I1967
sS'9641'
p2906
I1269
sS'9640'
p2907
I1463
sS'9643'
p2908
I1797
sS'9642'
p2909
I1948
sS'38536'
p2910
I2287
sS'38537'
p2911
I2497
sS'38534'
p2912
I2721
sS'10599'
p2913
I1713
sS'38532'
p2914
I2745
sS'38533'
p2915
I2242
sS'38530'
p2916
I2216
sS'38531'
p2917
I2175
sS'38538'
p2918
I2803
sS'38539'
p2919
I2326
sS'9793'
p2920
I1108
sS'9792'
p2921
I1149
sS'9791'
p2922
I1761
sS'9790'
p2923
I1785
sS'9797'
p2924
I1424
sS'9796'
p2925
I1556
sS'9795'
p2926
I1639
sS'9794'
p2927
I1011
sS'9799'
p2928
I1135
sS'9798'
p2929
I1041
sS'51765'
p2930
I339
sS'38659'
p2931
I2815
sS'38658'
p2932
I2510
sS'38653'
p2933
I2994
sS'38652'
p2934
I2950
sS'38651'
p2935
I2600
sS'38650'
p2936
I2751
sS'38657'
p2937
I2250
sS'38656'
p2938
I2486
sS'38655'
p2939
I2804
sS'38654'
p2940
I2669
sS'51763'
p2941
I718
sS'10910'
p2942
I1460
sS'10911'
p2943
I1735
sS'50547'
p2944
I759
sS'50546'
p2945
I474
sS'37924'
p2946
I2458
sS'51546'
p2947
I26
sS'37926'
p2948
I2211
sS'37927'
p2949
I2269
sS'37920'
p2950
I2409
sS'37921'
p2951
I2389
sS'37922'
p2952
I2859
sS'50548'
p2953
I150
sS'52320'
p2954
I86
sS'37928'
p2955
I2410
sS'51544'
p2956
I749
sS'38594'
p2957
I2185
sS'9804'
p2958
I1518
sS'38595'
p2959
I2082
sS'51542'
p2960
I47
sS'38773'
p2961
I2762
sS'38596'
p2962
I2104
sS'9802'
p2963
I1659
sS'38597'
p2964
I2055
sS'9801'
p2965
I1570
sS'9137'
p2966
I1677
sS'9800'
p2967
I1953
sS'52050'
p2968
I997
sS'52053'
p2969
I492
sS'10649'
p2970
I1661
sS'38646'
p2971
I2771
sS'9502'
p2972
I1037
sS'9503'
p2973
I1966
sS'10644'
p2974
I1130
sS'9138'
p2975
I1794
sS'39637'
p2976
I2363
sS'52059'
p2977
I126
sS'38647'
p2978
I2528
sS'52058'
p2979
I343
sS'38341'
p2980
I2403
sS'9504'
p2981
I1078
sS'38340'
p2982
I2598
sS'9505'
p2983
I1650
sS'38343'
p2984
I2839
sS'38342'
p2985
I2452
sS'38345'
p2986
I2944
sS'39631'
p2987
I2963
sS'38344'
p2988
I2148
sS'38349'
p2989
I2685
sS'38348'
p2990
I2781
sS'38347'
p2991
I2343
sS'50428'
p2992
I107
sS'50426'
p2993
I282
sS'50427'
p2994
I265
sS'50424'
p2995
I706
sS'50425'
p2996
I820
sS'50422'
p2997
I158
sS'50423'
p2998
I114
sS'50420'
p2999
I554
sS'50421'
p3000
I335
s.