(dp0
S'800184'
p1
I2671
sS'35545'
p2
I1461
sS'286946'
p3
I587
sS'170441'
p4
I537
sS'642227'
p5
I3053
sS'696379'
p6
I2364
sS'177794'
p7
I1703
sS'771049'
p8
I2924
sS'76961'
p9
I36
sS'241182'
p10
I1934
sS'581195'
p11
I3214
sS'63333'
p12
I1818
sS'612267'
p13
I2474
sS'758393'
p14
I2268
sS'795190'
p15
I2616
sS'377913'
p16
I343
sS'729656'
p17
I3170
sS'326157'
p18
I1160
sS'475425'
p19
I650
sS'544560'
p20
I2398
sS'279219'
p21
I239
sS'526502'
p22
I3520
sS'275942'
p23
I1274
sS'189599'
p24
I2123
sS'374153'
p25
I1524
sS'378790'
p26
I347
sS'304235'
p27
I227
sS'304236'
p28
I228
sS'279214'
p29
I237
sS'279217'
p30
I238
sS'354452'
p31
I1439
sS'276449'
p32
I1715
sS'358721'
p33
I778
sS'279363'
p34
I499
sS'556840'
p35
I2226
sS'213208'
p36
I786
sS'631692'
p37
I3259
sS'300252'
p38
I632
sS'531079'
p39
I2271
sS'61195'
p40
I998
sS'6156'
p41
I1751
sS'790024'
p42
I3432
sS'697513'
p43
I2372
sS'366787'
p44
I1944
sS'596808'
p45
I3450
sS'300494'
p46
I637
sS'6723'
p47
I1754
sS'289782'
p48
I1664
sS'786360'
p49
I3557
sS'331884'
p50
I80
sS'620872'
p51
I2907
sS'736842'
p52
I3398
sS'412983'
p53
I1184
sS'786368'
p54
I3558
sS'602120'
p55
I3567
sS'535946'
p56
I2864
sS'248595'
p57
I873
sS'396893'
p58
I1312
sS'786167'
p59
I3556
sS'396723'
p60
I1307
sS'580351'
p61
I3207
sS'554359'
p62
I3475
sS'427439'
p63
I1796
sS'396899'
p64
I1313
sS'799837'
p65
I2667
sS'518486'
p66
I2353
sS'679971'
p67
I2213
sS'653822'
p68
I3091
sS'667688'
p69
I2165
sS'260296'
p70
I416
sS'210170'
p71
I1495
sS'698015'
p72
I2132
sS'541586'
p73
I2713
sS'4650'
p74
I1098
sS'244792'
p75
I691
sS'372415'
p76
I1519
sS'182290'
p77
I465
sS'204884'
p78
I1147
sS'509008'
p79
I2179
sS'43698'
p80
I931
sS'90828'
p81
I809
sS'349409'
p82
I1808
sS'223030'
p83
I1034
sS'85322'
p84
I173
sS'631287'
p85
I3255
sS'790157'
p86
I3435
sS'683345'
p87
I2481
sS'196866'
p88
I2069
sS'798487'
p89
I2662
sS'539872'
p90
I2492
sS'581178'
p91
I3213
sS'754395'
p92
I2528
sS'759941'
p93
I2571
sS'633215'
p94
I3349
sS'418810'
p95
I1239
sS'270110'
p96
I41
sS'215124'
p97
I1997
sS'489783'
p98
I2855
sS'240323'
p99
I1927
sS'569925'
p100
I3233
sS'418362'
p101
I1235
sS'346990'
p102
I1886
sS'797532'
p103
I2849
sS'167045'
p104
I896
sS'321433'
p105
I514
sS'41901'
p106
I558
sS'724818'
p107
I2413
sS'328793'
p108
I451
sS'21924'
p109
I655
sS'349406'
p110
I1807
sS'166028'
p111
I892
sS'294545'
p112
I1853
sS'809674'
p113
I2460
sS'26028'
p114
I440
sS'678248'
p115
I2702
sS'100090'
p116
I790
sS'773906'
p117
I2262
sS'707838'
p118
I3075
sS'162742'
p119
I975
sS'163925'
p120
I978
sS'799010'
p121
I2666
sS'726954'
p122
I2652
sS'390991'
p123
I107
sS'163295'
p124
I976
sS'106136'
p125
I1913
sS'46863'
p126
I817
sS'46865'
p127
I819
sS'46864'
p128
I818
sS'766587'
p129
I2430
sS'379225'
p130
I349
sS'509906'
p131
I2182
sS'128054'
p132
I1691
sS'739693'
p133
I2961
sS'431126'
p134
I1782
sS'708630'
p135
I3082
sS'278385'
p136
I1591
sS'387109'
p137
I846
sS'654012'
p138
I3092
sS'351911'
p139
I1477
sS'351910'
p140
I1476
sS'418614'
p141
I1238
sS'605999'
p142
I2782
sS'694886'
p143
I2173
sS'779704'
p144
I2636
sS'804762'
p145
I2307
sS'804761'
p146
I2306
sS'127117'
p147
I1688
sS'54775'
p148
I713
sS'197745'
p149
I2076
sS'317384'
p150
I681
sS'718087'
p151
I3153
sS'804165'
p152
I3522
sS'752355'
p153
I2520
sS'462356'
p154
I2065
sS'419693'
p155
I1243
sS'395016'
p156
I389
sS'384805'
p157
I697
sS'255254'
p158
I297
sS'83905'
p159
I1434
sS'395018'
p160
I390
sS'770726'
p161
I2923
sS'264193'
p162
I1220
sS'134766'
p163
I1128
sS'347578'
p164
I1888
sS'590957'
p165
I2679
sS'252451'
p166
I611
sS'740022'
p167
I2966
sS'112553'
p168
I1012
sS'316703'
p169
I1876
sS'569078'
p170
I3228
sS'112043'
p171
I552
sS'347391'
p172
I1887
sS'209856'
p173
I1494
sS'784179'
p174
I3549
sS'520889'
p175
I3310
sS'621128'
p176
I2908
sS'437098'
p177
I1353
sS'630481'
p178
I3253
sS'678264'
p179
I2703
sS'659700'
p180
I3268
sS'160076'
p181
I2093
sS'94830'
p182
I963
sS'724551'
p183
I2403
sS'3349'
p184
I1086
sS'226654'
p185
I753
sS'637112'
p186
I2998
sS'99732'
p187
I806
sS'232642'
p188
I1681
sS'596063'
p189
I3422
sS'29769'
p190
I52
sS'601452'
p191
I3562
sS'277667'
p192
I1583
sS'380295'
p193
I356
sS'569673'
p194
I3232
sS'646366'
p195
I3003
sS'273379'
p196
I3
sS'35152'
p197
I1457
sS'226873'
p198
I759
sS'563647'
p199
I2983
sS'699347'
p200
I2137
sS'516371'
p201
I2347
sS'291607'
p202
I1075
sS'407625'
p203
I1643
sS'288531'
p204
I1652
sS'769161'
p205
I2913
sS'178586'
p206
I1903
sS'580030'
p207
I3206
sS'272576'
p208
I0
sS'183088'
p209
I466
sS'756386'
p210
I2948
sS'547032'
p211
I3024
sS'597859'
p212
I3453
sS'809432'
p213
I2459
sS'222954'
p214
I1033
sS'747235'
p215
I2802
sS'641189'
p216
I2515
sS'445715'
p217
I606
sS'765698'
p218
I2419
sS'595161'
p219
I3418
sS'171412'
p220
I539
sS'336277'
p221
I1973
sS'174130'
p222
I1289
sS'287375'
p223
I242
sS'102259'
p224
I1619
sS'774747'
p225
I2771
sS'366719'
p226
I1942
sS'547948'
p227
I3027
sS'189744'
p228
I2127
sS'283095'
p229
I620
sS'770026'
p230
I2919
sS'188619'
p231
I2116
sS'626515'
p232
I3383
sS'479482'
p233
I3137
sS'173309'
p234
I1282
sS'733072'
p235
I3579
sS'457845'
p236
I294
sS'334585'
p237
I1969
sS'480288'
p238
I3138
sS'82055'
p239
I947
sS'109196'
p240
I1024
sS'224256'
p241
I1041
sS'540160'
p242
I2493
sS'453328'
p243
I1734
sS'311710'
p244
I478
sS'34152'
p245
I1455
sS'333806'
p246
I1967
sS'194798'
p247
I475
sS'38350'
p248
I837
sS'783179'
p249
I2154
sS'770332'
p250
I2921
sS'287159'
p251
I592
sS'390900'
p252
I101
sS'355203'
p253
I1445
sS'217440'
p254
I182
sS'273627'
p255
I4
sS'460079'
p256
I282
sS'758388'
p257
I2267
sS'758384'
p258
I2266
sS'267471'
p259
I675
sS'460070'
p260
I281
sS'370790'
p261
I1113
sS'214888'
p262
I1996
sS'535836'
p263
I2863
sS'145690'
p264
I2106
sS'100372'
p265
I797
sS'439702'
p266
I571
sS'199949'
p267
I2112
sS'398444'
p268
I2040
sS'241668'
p269
I761
sS'355115'
p270
I1443
sS'241846'
p271
I765
sS'100176'
p272
I794
sS'746479'
p273
I2799
sS'294937'
p274
I1855
sS'608510'
p275
I2501
sS'281829'
p276
I985
sS'304006'
p277
I225
sS'406639'
p278
I1640
sS'396660'
p279
I1301
sS'396661'
p280
I1302
sS'774151'
p281
I2263
sS'664424'
p282
I2319
sS'333022'
p283
I1053
sS'130897'
p284
I1167
sS'223338'
p285
I1036
sS'282327'
p286
I991
sS'366760'
p287
I1943
sS'715508'
p288
I3141
sS'284823'
p289
I1573
sS'141332'
p290
I155
sS'117406'
p291
I1395
sS'494446'
p292
I2205
sS'465188'
p293
I1315
sS'101627'
p294
I1614
sS'771057'
p295
I2926
sS'300488'
p296
I636
sS'65877'
p297
I1831
sS'81505'
p298
I946
sS'677076'
p299
I2934
sS'180376'
p300
I1047
sS'559092'
p301
I2687
sS'654219'
p302
I3093
sS'93135'
p303
I957
sS'493712'
p304
I2200
sS'396713'
p305
I1306
sS'650066'
p306
I3100
sS'730939'
p307
I3181
sS'240551'
p308
I1930
sS'328527'
p309
I449
sS'510756'
p310
I2185
sS'424154'
p311
I1515
sS'286204'
p312
I1196
sS'459876'
p313
I279
sS'195524'
p314
I974
sS'535488'
p315
I2862
sS'182283'
p316
I464
sS'423217'
p317
I1512
sS'715677'
p318
I3142
sS'81343'
p319
I940
sS'231079'
p320
I1674
sS'681311'
p321
I2217
sS'81347'
p322
I942
sS'81346'
p323
I941
sS'333117'
p324
I1055
sS'802130'
p325
I3535
sS'196467'
p326
I2067
sS'679871'
p327
I2211
sS'550589'
p328
I2463
sS'522631'
p329
I2603
sS'194615'
p330
I473
sS'98072'
p331
I1378
sS'75845'
p332
I32
sS'515474'
p333
I3507
sS'429367'
p334
I1469
sS'327691'
p335
I445
sS'482931'
p336
I3284
sS'744377'
p337
I2384
sS'745197'
p338
I2791
sS'801271'
p339
I2675
sS'46278'
p340
I816
sS'479183'
p341
I3135
sS'764019'
p342
I3377
sS'9246'
p343
I1366
sS'376309'
p344
I325
sS'795026'
p345
I2615
sS'281646'
p346
I983
sS'476483'
p347
I200
sS'520343'
p348
I3306
sS'780617'
p349
I2640
sS'667782'
p350
I2167
sS'810883'
p351
I2561
sS'102432'
p352
I1624
sS'223154'
p353
I1035
sS'593122'
p354
I3510
sS'439812'
p355
I572
sS'61831'
p356
I1002
sS'341644'
p357
I22
sS'791914'
p358
I3069
sS'772350'
p359
I2253
sS'759395'
p360
I2563
sS'555374'
p361
I2219
sS'281795'
p362
I984
sS'548895'
p363
I3033
sS'26038'
p364
I443
sS'396910'
p365
I1314
sS'167294'
p366
I897
sS'26035'
p367
I442
sS'53036'
p368
I341
sS'26033'
p369
I441
sS'682251'
p370
I2475
sS'705395'
p371
I2825
sS'85601'
p372
I176
sS'278584'
p373
I1593
sS'536764'
p374
I2867
sS'757798'
p375
I2954
sS'613436'
p376
I2338
sS'387860'
p377
I859
sS'341399'
p378
I21
sS'643745'
p379
I3057
sS'33049'
p380
I1986
sS'212967'
p381
I785
sS'7212'
p382
I1763
sS'436152'
p383
I1351
sS'120954'
p384
I882
sS'237607'
p385
I308
sS'365858'
p386
I1533
sS'668139'
p387
I2168
sS'349231'
p388
I1803
sS'274913'
p389
I1385
sS'300118'
p390
I630
sS'800655'
p391
I2672
sS'233836'
p392
I254
sS'167873'
p393
I898
sS'410814'
p394
I738
sS'490839'
p395
I2584
sS'62654'
p396
I1005
sS'70340'
p397
I728
sS'720388'
p398
I2295
sS'721257'
p399
I2298
sS'387718'
p400
I851
sS'387719'
p401
I852
sS'49951'
p402
I420
sS'458905'
p403
I277
sS'294028'
p404
I1851
sS'104870'
p405
I1907
sS'764996'
p406
I2417
sS'317394'
p407
I682
sS'418598'
p408
I1237
sS'741729'
p409
I2628
sS'232034'
p410
I1678
sS'477356'
p411
I204
sS'337240'
p412
I1207
sS'757623'
p413
I2951
sS'346541'
p414
I1883
sS'7323'
p415
I1764
sS'281234'
p416
I2087
sS'206588'
p417
I911
sS'551898'
p418
I2469
sS'613723'
p419
I2341
sS'99435'
p420
I805
sS'432722'
p421
I1549
sS'102099'
p422
I1617
sS'112549'
p423
I1011
sS'753564'
p424
I2523
sS'193965'
p425
I1702
sS'59828'
p426
I1510
sS'32464'
p427
I1983
sS'255711'
p428
I299
sS'555951'
p429
I2220
sS'562841'
p430
I2979
sS'695101'
p431
I2177
sS'753967'
p432
I2525
sS'415714'
p433
I375
sS'383057'
p434
I61
sS'364728'
p435
I71
sS'91072'
p436
I812
sS'772002'
p437
I2246
sS'335506'
p438
I1971
sS'454829'
p439
I1740
sS'628636'
p440
I3496
sS'745144'
p441
I2790
sS'197337'
p442
I2072
sS'426399'
p443
I1789
sS'637455'
p444
I3001
sS'242317'
p445
I1670
sS'197663'
p446
I2075
sS'169586'
p447
I534
sS'94828'
p448
I962
sS'709448'
p449
I3016
sS'478850'
p450
I3132
sS'87114'
p451
I1253
sS'756669'
p452
I2949
sS'284549'
p453
I1569
sS'757716'
p454
I2952
sS'785803'
p455
I3554
sS'282919'
p456
I616
sS'788764'
p457
I2239
sS'724657'
p458
I2406
sS'380282'
p459
I355
sS'6961'
p460
I1757
sS'6960'
p461
I1756
sS'157936'
p462
I96
sS'273362'
p463
I2
sS'681283'
p464
I2216
sS'758719'
p465
I3223
sS'8620'
p466
I1360
sS'345221'
p467
I1405
sS'183093'
p468
I467
sS'207387'
p469
I915
sS'179842'
p470
I1046
sS'695073'
p471
I2176
sS'538513'
p472
I2489
sS'688463'
p473
I2321
sS'614289'
p474
I2346
sS'110801'
p475
I546
sS'694858'
p476
I2171
sS'507603'
p477
I2314
sS'445723'
p478
I607
sS'188641'
p479
I2118
sS'552537'
p480
I2473
sS'96121'
p481
I1373
sS'331188'
p482
I75
sS'808105'
p483
I2455
sS'7195'
p484
I1762
sS'606504'
p485
I2785
sS'296744'
p486
I1412
sS'173316'
p487
I1284
sS'173314'
p488
I1283
sS'500191'
p489
I3109
sS'72716'
p490
I843
sS'446709'
p491
I1101
sS'77564'
p492
I186
sS'258822'
p493
I405
sS'258821'
p494
I404
sS'803312'
p495
I3540
sS'221090'
p496
I723
sS'537168'
p497
I2868
sS'190954'
p498
I2131
sS'803314'
p499
I3541
sS'326000'
p500
I1159
sS'686581'
p501
I2756
sS'12822'
p502
I1226
sS'272140'
p503
I1538
sS'732711'
p504
I3577
sS'97850'
p505
I1376
sS'690136'
p506
I2328
sS'429034'
p507
I1464
sS'303115'
p508
I223
sS'308677'
p509
I265
sS'749991'
p510
I2896
sS'378269'
p511
I346
sS'283792'
p512
I1567
sS'554822'
p513
I3478
sS'746429'
p514
I2796
sS'750540'
p515
I2900
sS'206383'
p516
I903
sS'789216'
p517
I2242
sS'206385'
p518
I905
sS'206384'
p519
I904
sS'496716'
p520
I2941
sS'763436'
p521
I3373
sS'733784'
p522
I3584
sS'523100'
p523
I2194
sS'809888'
p524
I2461
sS'228588'
p525
I1451
sS'289656'
p526
I1659
sS'22395'
p527
I659
sS'109275'
p528
I1025
sS'279983'
p529
I2078
sS'377972'
p530
I345
sS'279984'
p531
I2079
sS'212334'
p532
I1768
sS'209717'
p533
I1489
sS'405732'
p534
I2103
sS'776866'
p535
I3300
sS'209714'
p536
I1488
sS'310527'
p537
I275
sS'615711'
p538
I3533
sS'398456'
p539
I2043
sS'398453'
p540
I2042
sS'55030'
p541
I394
sS'576242'
p542
I2737
sS'213221'
p543
I788
sS'22021'
p544
I656
sS'212332'
p545
I1767
sS'649535'
p546
I3098
sS'633667'
p547
I3351
sS'242305'
p548
I1669
sS'777200'
p549
I3302
sS'231105'
p550
I1675
sS'205139'
p551
I1148
sS'630251'
p552
I3252
sS'456409'
p553
I290
sS'679903'
p554
I2212
sS'323216'
p555
I525
sS'140529'
p556
I150
sS'300473'
p557
I635
sS'300471'
p558
I634
sS'634599'
p559
I3356
sS'505762'
p560
I2308
sS'213352'
p561
I1989
sS'180386'
p562
I1048
sS'130798'
p563
I1165
sS'493706'
p564
I2199
sS'493700'
p565
I2198
sS'475840'
p566
I337
sS'82732'
p567
I954
sS'308852'
p568
I267
sS'150021'
p569
I206
sS'372439'
p570
I1520
sS'328240'
p571
I448
sS'409297'
p572
I1644
sS'490360'
p573
I2582
sS'635245'
p574
I3361
sS'558593'
p575
I2189
sS'261473'
p576
I772
sS'219924'
p577
I718
sS'687259'
p578
I2762
sS'81352'
p579
I945
sS'158695'
p580
I98
sS'81350'
p581
I944
sS'741196'
p582
I3425
sS'652889'
p583
I3086
sS'428182'
p584
I1801
sS'82559'
p585
I952
sS'6689'
p586
I1753
sS'396675'
p587
I1305
sS'396673'
p588
I1304
sS'396671'
p589
I1303
sS'803786'
p590
I3544
sS'161904'
p591
I1546
sS'623365'
p592
I2728
sS'257383'
p593
I2054
sS'556869'
p594
I2227
sS'674098'
p595
I2719
sS'727753'
p596
I2655
sS'520353'
p597
I3307
sS'308923'
p598
I268
sS'592556'
p599
I2685
sS'212804'
p600
I779
sS'498406'
p601
I2945
sS'602880'
p602
I3570
sS'36318'
p603
I1462
sS'13295'
p604
I593
sS'16839'
p605
I1815
sS'70000'
p606
I727
sS'324183'
p607
I1150
sS'695810'
p608
I2357
sS'418345'
p609
I1234
sS'365992'
p610
I1938
sS'304588'
p611
I230
sS'195205'
p612
I967
sS'300293'
p613
I633
sS'69198'
p614
I1115
sS'297296'
p615
I1419
sS'506840'
p616
I2313
sS'796749'
p617
I2841
sS'140986'
p618
I152
sS'543620'
p619
I2393
sS'810746'
p620
I2552
sS'678511'
p621
I2708
sS'267423'
p622
I674
sS'227100'
p623
I511
sS'349884'
p624
I122
sS'278590'
p625
I1594
sS'317701'
p626
I686
sS'22813'
p627
I661
sS'314722'
p628
I431
sS'3538'
p629
I1088
sS'261305'
p630
I770
sS'264703'
p631
I1223
sS'16905'
p632
I1816
sS'379241'
p633
I350
sS'613174'
p634
I2336
sS'221890'
p635
I725
sS'445266'
p636
I460
sS'379244'
p637
I351
sS'524730'
p638
I3513
sS'53971'
p639
I1769
sS'628861'
p640
I3500
sS'682823'
p641
I2479
sS'658926'
p642
I3263
sS'739865'
p643
I2963
sS'387471'
p644
I849
sS'53979'
p645
I1770
sS'790186'
p646
I3436
sS'345606'
p647
I1408
sS'582207'
p648
I2871
sS'138082'
p649
I1963
sS'665754'
p650
I2158
sS'242125'
p651
I1665
sS'20388'
p652
I495
sS'324532'
p653
I1152
sS'27366'
p654
I2004
sS'122018'
p655
I887
sS'717781'
p656
I3151
sS'213994'
p657
I1992
sS'501042'
p658
I3112
sS'415527'
p659
I373
sS'724713'
p660
I2410
sS'297836'
p661
I1429
sS'297833'
p662
I1428
sS'546729'
p663
I3021
sS'179297'
p664
I1043
sS'718550'
p665
I2282
sS'395032'
p666
I391
sS'613717'
p667
I2340
sS'367286'
p668
I1947
sS'418122'
p669
I1233
sS'78269'
p670
I189
sS'472897'
p671
I1842
sS'736375'
p672
I3393
sS'317676'
p673
I685
sS'108024'
p674
I1017
sS'587660'
p675
I2599
sS'516774'
p676
I2348
sS'331468'
p677
I76
sS'280671'
p678
I2083
sS'803813'
p679
I3545
sS'709051'
p680
I2701
sS'138881'
p681
I1966
sS'763430'
p682
I3372
sS'222371'
p683
I1030
sS'317070'
p684
I1882
sS'112597'
p685
I1013
sS'230244'
p686
I1673
sS'423870'
p687
I1513
sS'691371'
p688
I2335
sS'710158'
p689
I3190
sS'197651'
p690
I2074
sS'306052'
p691
I160
sS'705360'
p692
I2824
sS'516885'
p693
I2349
sS'196781'
p694
I2068
sS'7053'
p695
I1760
sS'794338'
p696
I2611
sS'213757'
p697
I1991
sS'275521'
p698
I1391
sS'757274'
p699
I2950
sS'249983'
p700
I876
sS'771065'
p701
I2928
sS'652882'
p702
I3085
sS'282905'
p703
I615
sS'68332'
p704
I1065
sS'164034'
p705
I979
sS'15934'
p706
I1810
sS'349255'
p707
I1804
sS'226699'
p708
I755
sS'226698'
p709
I754
sS'273826'
p710
I5
sS'257703'
p711
I2059
sS'765818'
p712
I2420
sS'735788'
p713
I3390
sS'197519'
p714
I2073
sS'749967'
p715
I2895
sS'724734'
p716
I2412
sS'245294'
p717
I134
sS'593887'
p718
I3413
sS'552347'
p719
I2472
sS'517573'
p720
I2351
sS'787700'
p721
I2231
sS'733802'
p722
I3586
sS'524842'
p723
I3515
sS'786137'
p724
I3555
sS'179473'
p725
I1045
sS'709297'
p726
I3013
sS'725440'
p727
I2643
sS'76207'
p728
I33
sS'433115'
p729
I1554
sS'708898'
p730
I2694
sS'433110'
p731
I1553
sS'385407'
p732
I698
sS'144565'
p733
I1605
sS'564820'
p734
I2987
sS'541695'
p735
I2716
sS'573435'
p736
I2754
sS'337457'
p737
I1208
sS'100550'
p738
I799
sS'759729'
p739
I2569
sS'107274'
p740
I1016
sS'279422'
p741
I502
sS'26602'
p742
I1203
sS'26601'
p743
I1202
sS'656215'
p744
I3157
sS'217194'
p745
I181
sS'190332'
p746
I2128
sS'92534'
p747
I814
sS'207486'
p748
I917
sS'349900'
p749
I123
sS'394504'
p750
I384
sS'370065'
p751
I1110
sS'746451'
p752
I2798
sS'262805'
p753
I775
sS'219668'
p754
I716
sS'78867'
p755
I193
sS'350086'
p756
I125
sS'770318'
p757
I2920
sS'733795'
p758
I3585
sS'289387'
p759
I1657
sS'259459'
p760
I410
sS'26543'
p761
I1201
sS'696616'
p762
I2367
sS'606223'
p763
I2784
sS'114514'
p764
I1635
sS'366564'
p765
I1941
sS'289640'
p766
I1658
sS'651064'
p767
I3105
sS'758529'
p768
I3217
sS'100156'
p769
I793
sS'185398'
p770
I1863
sS'717315'
p771
I3149
sS'704752'
p772
I2819
sS'615704'
p773
I3532
sS'241829'
p774
I764
sS'770007'
p775
I2918
sS'126488'
p776
I1685
sS'790883'
p777
I3061
sS'546509'
p778
I3020
sS'241825'
p779
I763
sS'580784'
p780
I3209
sS'425151'
p781
I1517
sS'640874'
p782
I2512
sS'406653'
p783
I1641
sS'649813'
p784
I3099
sS'431284'
p785
I1783
sS'276703'
p786
I1720
sS'213231'
p787
I789
sS'750262'
p788
I2898
sS'400348'
p789
I1244
sS'131520'
p790
I1171
sS'749034'
p791
I2890
sS'282341'
p792
I992
sS'266035'
p793
I668
sS'776233'
p794
I3297
sS'773834'
p795
I2261
sS'292853'
p796
I1845
sS'60812'
p797
I996
sS'761015'
p798
I2581
sS'485471'
p799
I3530
sS'166455'
p800
I894
sS'383494'
p801
I62
sS'27128'
p802
I2001
sS'241221'
p803
I1935
sS'276674'
p804
I1718
sS'526378'
p805
I3519
sS'771115'
p806
I2929
sS'741507'
p807
I2620
sS'128937'
p808
I746
sS'25386'
p809
I1270
sS'558731'
p810
I2190
sS'622916'
p811
I2725
sS'90877'
p812
I810
sS'128930'
p813
I745
sS'332959'
p814
I1052
sS'148331'
p815
I1975
sS'687712'
p816
I2763
sS'148337'
p817
I1976
sS'715093'
p818
I2549
sS'4601'
p819
I1096
sS'104035'
p820
I1628
sS'346801'
p821
I1885
sS'287620'
p822
I246
sS'762929'
p823
I3371
sS'494393'
p824
I2203
sS'702719'
p825
I3334
sS'567377'
p826
I3594
sS'301184'
p827
I1896
sS'494395'
p828
I2204
sS'573186'
p829
I2753
sS'56206'
p830
I399
sS'396601'
p831
I1300
sS'305515'
p832
I157
sS'191235'
p833
I1693
sS'499877'
p834
I3107
sS'692866'
p835
I3447
sS'82547'
p836
I951
sS'701850'
p837
I3322
sS'806750'
p838
I2975
sS'135318'
p839
I1129
sS'39972'
p840
I554
sS'806204'
p841
I2973
sS'503462'
p842
I3408
sS'806200'
p843
I2972
sS'301233'
p844
I1897
sS'414136'
p845
I363
sS'688998'
p846
I2322
sS'41974'
p847
I560
sS'647484'
p848
I3010
sS'602890'
p849
I3571
sS'722329'
p850
I3485
sS'505448'
p851
I2386
sS'560673'
p852
I2692
sS'349413'
p853
I1809
sS'184709'
p854
I472
sS'531221'
p855
I2272
sS'702006'
p856
I3323
sS'341665'
p857
I23
sS'439835'
p858
I573
sS'578838'
p859
I3202
sS'684211'
p860
I2484
sS'161801'
p861
I1541
sS'12856'
p862
I1227
sS'161808'
p863
I1542
sS'26057'
p864
I444
sS'539023'
p865
I2491
sS'280695'
p866
I2084
sS'810751'
p867
I2554
sS'810750'
p868
I2553
sS'368005'
p869
I1952
sS'9355'
p870
I1370
sS'387805'
p871
I857
sS'203005'
p872
I1139
sS'587257'
p873
I2597
sS'743588'
p874
I2381
sS'518479'
p875
I2352
sS'706032'
p876
I2833
sS'303584'
p877
I224
sS'641003'
p878
I2514
sS'349389'
p879
I1806
sS'741722'
p880
I2627
sS'682705'
p881
I2478
sS'175430'
p882
I935
sS'636291'
p883
I2992
sS'743907'
p884
I2383
sS'766237'
p885
I2428
sS'548200'
p886
I3030
sS'687853'
p887
I2764
sS'255024'
p888
I296
sS'518898'
p889
I2354
sS'501637'
p890
I3118
sS'4997'
p891
I1742
sS'270146'
p892
I42
sS'210638'
p893
I1497
sS'682386'
p894
I2477
sS'700090'
p895
I2141
sS'134552'
p896
I1126
sS'162176'
p897
I862
sS'196324'
p898
I2066
sS'159968'
p899
I2090
sS'645669'
p900
I2809
sS'285767'
p901
I1193
sS'211853'
p902
I1502
sS'790150'
p903
I3434
sS'559549'
p904
I2690
sS'121020'
p905
I883
sS'711305'
p906
I3195
sS'728525'
p907
I3165
sS'772886'
p908
I2255
sS'583152'
p909
I2877
sS'719896'
p910
I2292
sS'98565'
p911
I1342
sS'474187'
p912
I454
sS'718541'
p913
I2281
sS'570448'
p914
I3241
sS'173170'
p915
I1281
sS'54501'
p916
I709
sS'722468'
p917
I3486
sS'62781'
p918
I1007
sS'11918'
p919
I2025
sS'742239'
p920
I2377
sS'317663'
p921
I684
sS'432077'
p922
I1788
sS'421225'
p923
I1609
sS'741418'
p924
I2619
sS'659972'
p925
I3270
sS'151369'
p926
I214
sS'709027'
p927
I2700
sS'641866'
p928
I2517
sS'225400'
p929
I1333
sS'495281'
p930
I2208
sS'411382'
p931
I743
sS'705599'
p932
I2827
sS'129394'
p933
I752
sS'443416'
p934
I568
sS'398720'
p935
I2046
sS'369352'
p936
I1109
sS'35032'
p937
I1456
sS'121622'
p938
I886
sS'645409'
p939
I3041
sS'629585'
p940
I3249
sS'467855'
p941
I1324
sS'252393'
p942
I610
sS'610141'
p943
I2506
sS'797662'
p944
I2850
sS'724587'
p945
I2404
sS'771059'
p946
I2927
sS'410412'
p947
I735
sS'202288'
p948
I1131
sS'771050'
p949
I2925
sS'223961'
p950
I1039
sS'202287'
p951
I1130
sS'157225'
p952
I90
sS'543491'
p953
I2392
sS'769826'
p954
I2916
sS'718948'
p955
I2283
sS'83158'
p956
I1259
sS'709335'
p957
I3014
sS'758738'
p958
I3225
sS'285613'
p959
I1191
sS'330039'
p960
I73
sS'83150'
p961
I1258
sS'729030'
p962
I3167
sS'571926'
p963
I2744
sS'471167'
p964
I333
sS'272018'
p965
I1536
sS'285581'
p966
I1190
sS'381398'
p967
I1339
sS'384725'
p968
I696
sS'159986'
p969
I2091
sS'375316'
p970
I318
sS'402554'
p971
I1251
sS'694875'
p972
I2172
sS'284698'
p973
I1570
sS'2985'
p974
I1082
sS'258930'
p975
I406
sS'421795'
p976
I1612
sS'690143'
p977
I2329
sS'157353'
p978
I92
sS'258936'
p979
I407
sS'202406'
p980
I1132
sS'288500'
p981
I1650
sS'417556'
p982
I1229
sS'794139'
p983
I2609
sS'76233'
p984
I34
sS'239139'
p985
I1920
sS'131060'
p986
I1168
sS'171602'
p987
I540
sS'334317'
p988
I1968
sS'177866'
p989
I1704
sS'613124'
p990
I3317
sS'267197'
p991
I671
sS'322053'
p992
I520
sS'271615'
p993
I639
sS'557822'
p994
I2229
sS'804661'
p995
I2301
sS'612763'
p996
I3313
sS'503468'
p997
I3409
sS'553342'
p998
I3470
sS'38383'
p999
I838
sS'804669'
p1000
I2302
sS'394573'
p1001
I385
sS'541590'
p1002
I2715
sS'361341'
p1003
I2033
sS'746445'
p1004
I2797
sS'574880'
p1005
I2451
sS'332430'
p1006
I82
sS'117632'
p1007
I1397
sS'747487'
p1008
I2803
sS'430418'
p1009
I1780
sS'172515'
p1010
I1278
sS'374975'
p1011
I315
sS'663883'
p1012
I2316
sS'267680'
p1013
I676
sS'446610'
p1014
I1100
sS'696210'
p1015
I2363
sS'287433'
p1016
I244
sS'759567'
p1017
I2564
sS'257114'
p1018
I530
sS'469230'
p1019
I331
sS'257113'
p1020
I529
sS'574603'
p1021
I2448
sS'185381'
p1022
I1862
sS'209773'
p1023
I1491
sS'752177'
p1024
I2519
sS'705611'
p1025
I2828
sS'377956'
p1026
I344
sS'774654'
p1027
I2768
sS'629409'
p1028
I2722
sS'314999'
p1029
I434
sS'206525'
p1030
I909
sS'206524'
p1031
I908
sS'691034'
p1032
I2330
sS'24598'
p1033
I1267
sS'16109'
p1034
I1811
sS'11463'
p1035
I2018
sS'522361'
p1036
I3311
sS'631418'
p1037
I3256
sS'276711'
p1038
I1721
sS'19626'
p1039
I491
sS'531033'
p1040
I2270
sS'31956'
p1041
I1981
sS'629408'
p1042
I2721
sS'253281'
p1043
I613
sS'259883'
p1044
I414
sS'413650'
p1045
I603
sS'733706'
p1046
I3583
sS'209416'
p1047
I1484
sS'468499'
p1048
I328
sS'114439'
p1049
I1634
sS'69511'
p1050
I1118
sS'665740'
p1051
I2157
sS'257075'
p1052
I528
sS'598550'
p1053
I3459
sS'598556'
p1054
I3461
sS'594480'
p1055
I3414
sS'286906'
p1056
I586
sS'9944'
p1057
I1372
sS'318643'
p1058
I1294
sS'730695'
p1059
I3179
sS'266956'
p1060
I669
sS'100904'
p1061
I801
sS'75475'
p1062
I31
sS'277828'
p1063
I1586
sS'609610'
p1064
I2503
sS'702233'
p1065
I3325
sS'277288'
p1066
I1732
sS'547984'
p1067
I3028
sS'733346'
p1068
I3582
sS'741666'
p1069
I2624
sS'240561'
p1070
I1931
sS'505529'
p1071
I2389
sS'741667'
p1072
I2625
sS'241762'
p1073
I762
sS'281477'
p1074
I982
sS'208172'
p1075
I923
sS'128949'
p1076
I747
sS'332942'
p1077
I1050
sS'57453'
p1078
I1506
sS'220583'
p1079
I721
sS'682866'
p1080
I2480
sS'314378'
p1081
I429
sS'21894'
p1082
I653
sS'623348'
p1083
I2727
sS'468012'
p1084
I1326
sS'431298'
p1085
I1785
sS'39961'
p1086
I362
sS'153449'
p1087
I114
sS'387384'
p1088
I848
sS'660540'
p1089
I3276
sS'333201'
p1090
I1058
sS'64494'
p1091
I1822
sS'657121'
p1092
I3160
sS'195480'
p1093
I973
sS'218052'
p1094
I183
sS'714686'
p1095
I2546
sS'102403'
p1096
I1623
sS'790886'
p1097
I3062
sS'576803'
p1098
I2740
sS'683397'
p1099
I2482
sS'506194'
p1100
I2312
sS'161811'
p1101
I1543
sS'755351'
p1102
I2533
sS'764726'
p1103
I3379
sS'773569'
p1104
I2257
sS'128545'
p1105
I1435
sS'17186'
p1106
I1817
sS'429498'
p1107
I1775
sS'27952'
p1108
I2011
sS'418436'
p1109
I1236
sS'678533'
p1110
I2709
sS'691450'
p1111
I3439
sS'297255'
p1112
I1418
sS'7378'
p1113
I1765
sS'429656'
p1114
I1776
sS'60447'
p1115
I995
sS'337879'
p1116
I1211
sS'365888'
p1117
I1535
sS'188816'
p1118
I2119
sS'269457'
p1119
I38
sS'363450'
p1120
I65
sS'337871'
p1121
I1210
sS'365880'
p1122
I1534
sS'212916'
p1123
I784
sS'439997'
p1124
I575
sS'455515'
p1125
I287
sS'442903'
p1126
I566
sS'795786'
p1127
I2836
sS'635339'
p1128
I3364
sS'679136'
p1129
I2144
sS'719086'
p1130
I2285
sS'312112'
p1131
I480
sS'475261'
p1132
I646
sS'112918'
p1133
I1710
sS'475267'
p1134
I647
sS'387729'
p1135
I855
sS'387726'
p1136
I854
sS'421813'
p1137
I1613
sS'387722'
p1138
I853
sS'768010'
p1139
I2444
sS'431285'
p1140
I1784
sS'106664'
p1141
I1918
sS'390312'
p1142
I100
sS'41093'
p1143
I556
sS'570453'
p1144
I3242
sS'341295'
p1145
I16
sS'724731'
p1146
I2411
sS'462316'
p1147
I2063
sS'341293'
p1148
I15
sS'37422'
p1149
I829
sS'730992'
p1150
I3184
sS'790092'
p1151
I3433
sS'146734'
p1152
I1974
sS'59811'
p1153
I1509
sS'211917'
p1154
I1504
sS'44202'
p1155
I933
sS'146434'
p1156
I1834
sS'628662'
p1157
I3497
sS'804699'
p1158
I2303
sS'570694'
p1159
I3247
sS'419678'
p1160
I1242
sS'264422'
p1161
I1221
sS'453580'
p1162
I1736
sS'570692'
p1163
I3246
sS'7031'
p1164
I1758
sS'7032'
p1165
I1759
sS'724323'
p1166
I3344
sS'276862'
p1167
I1726
sS'38771'
p1168
I840
sS'317056'
p1169
I1881
sS'567281'
p1170
I3593
sS'443403'
p1171
I567
sS'123454'
p1172
I1576
sS'290173'
p1173
I1067
sS'483375'
p1174
I3286
sS'264955'
p1175
I1224
sS'456991'
p1176
I292
sS'696019'
p1177
I2362
sS'39636'
p1178
I358
sS'319909'
p1179
I1297
sS'313218'
p1180
I483
sS'555270'
p1181
I2218
sS'371067'
p1182
I1114
sS'219067'
p1183
I185
sS'282969'
p1184
I619
sS'195114'
p1185
I965
sS'587040'
p1186
I2596
sS'758645'
p1187
I3221
sS'569219'
p1188
I3229
sS'275092'
p1189
I1388
sS'102197'
p1190
I1618
sS'232175'
p1191
I1680
sS'47497'
p1192
I822
sS'543727'
p1193
I2394
sS'275270'
p1194
I1389
sS'695022'
p1195
I2175
sS'242694'
p1196
I687
sS'652422'
p1197
I3083
sS'748528'
p1198
I2886
sS'705958'
p1199
I2832
sS'271757'
p1200
I645
sS'563642'
p1201
I2982
sS'300150'
p1202
I631
sS'305886'
p1203
I158
sS'345975'
p1204
I1409
sS'62111'
p1205
I1004
sS'394364'
p1206
I383
sS'729516'
p1207
I3168
sS'505991'
p1208
I2310
sS'77934'
p1209
I187
sS'462160'
p1210
I2061
sS'529408'
p1211
I2661
sS'565690'
p1212
I3588
sS'232774'
p1213
I1683
sS'78115'
p1214
I188
sS'445757'
p1215
I608
sS'558459'
p1216
I2187
sS'283615'
p1217
I1565
sS'287338'
p1218
I240
sS'173349'
p1219
I1285
sS'461328'
p1220
I286
sS'737156'
p1221
I3399
sS'758619'
p1222
I3220
sS'716272'
p1223
I3146
sS'5951'
p1224
I1746
sS'769160'
p1225
I2912
sS'322047'
p1226
I519
sS'322044'
p1227
I518
sS'294966'
p1228
I1858
sS'544468'
p1229
I2397
sS'721173'
p1230
I2297
sS'50325'
p1231
I422
sS'803583'
p1232
I3543
sS'50452'
p1233
I423
sS'725883'
p1234
I2648
sS'711623'
p1235
I3198
sS'541589'
p1236
I2714
sS'273849'
p1237
I6
sS'188540'
p1238
I2115
sS'66546'
p1239
I1059
sS'238949'
p1240
I314
sS'183621'
p1241
I468
sS'684776'
p1242
I2485
sS'232911'
p1243
I1684
sS'289660'
p1244
I1660
sS'79082'
p1245
I194
sS'635955'
p1246
I2989
sS'402152'
p1247
I1249
sS'677078'
p1248
I2935
sS'653579'
p1249
I3089
sS'442586'
p1250
I563
sS'319276'
p1251
I1295
sS'782242'
p1252
I2149
sS'161002'
p1253
I2097
sS'136988'
p1254
I1957
sS'475909'
p1255
I338
sS'100132'
p1256
I792
sS'437831'
p1257
I1357
sS'136594'
p1258
I1956
sS'647452'
p1259
I3008
sS'413725'
p1260
I604
sS'598094'
p1261
I3456
sS'48867'
p1262
I417
sS'246884'
p1263
I137
sS'5711'
p1264
I1743
sS'540364'
p1265
I2499
sS'453532'
p1266
I1735
sS'540360'
p1267
I2497
sS'540361'
p1268
I2498
sS'143269'
p1269
I1598
sS'298789'
p1270
I624
sS'304753'
p1271
I156
sS'110430'
p1272
I542
sS'431758'
p1273
I1787
sS'400369'
p1274
I1245
sS'331832'
p1275
I79
sS'558830'
p1276
I2193
sS'624087'
p1277
I2731
sS'413624'
p1278
I602
sS'750247'
p1279
I2897
sS'430117'
p1280
I1778
sS'11483'
p1281
I2019
sS'22291'
p1282
I658
sS'286066'
p1283
I1194
sS'747614'
p1284
I2804
sS'292213'
p1285
I1078
sS'562041'
p1286
I2977
sS'279573'
p1287
I504
sS'795412'
p1288
I2835
sS'729573'
p1289
I3169
sS'544621'
p1290
I2399
sS'705939'
p1291
I2831
sS'64800'
p1292
I1823
sS'634707'
p1293
I3357
sS'65040'
p1294
I1826
sS'32918'
p1295
I1985
sS'306663'
p1296
I163
sS'306665'
p1297
I164
sS'574501'
p1298
I2445
sS'374182'
p1299
I1525
sS'459097'
p1300
I278
sS'208162'
p1301
I922
sS'16754'
p1302
I1814
sS'760281'
p1303
I2575
sS'562340'
p1304
I2978
sS'16597'
p1305
I1812
sS'409361'
p1306
I1645
sS'289287'
p1307
I1656
sS'184657'
p1308
I471
sS'563215'
p1309
I2980
sS'710634'
p1310
I3191
sS'669537'
p1311
I3047
sS'605600'
p1312
I2780
sS'185752'
p1313
I1864
sS'640980'
p1314
I2513
sS'413532'
p1315
I600
sS'316936'
p1316
I1879
sS'104583'
p1317
I1905
sS'74865'
p1318
I28
sS'306712'
p1319
I165
sS'723901'
p1320
I3495
sS'741231'
p1321
I3427
sS'120177'
p1322
I878
sS'636678'
p1323
I2995
sS'601769'
p1324
I3565
sS'7817'
p1325
I1358
sS'791779'
p1326
I3066
sS'492802'
p1327
I2197
sS'796521'
p1328
I2838
sS'379584'
p1329
I353
sS'98564'
p1330
I1341
sS'332957'
p1331
I1051
sS'636609'
p1332
I2993
sS'441560'
p1333
I584
sS'772311'
p1334
I2249
sS'772317'
p1335
I2250
sS'505466'
p1336
I2387
sS'261466'
p1337
I771
sS'3655'
p1338
I1091
sS'567116'
p1339
I3592
sS'670516'
p1340
I3050
sS'41955'
p1341
I559
sS'639402'
p1342
I2509
sS'11665'
p1343
I2023
sS'719083'
p1344
I2284
sS'345560'
p1345
I1407
sS'152876'
p1346
I112
sS'195470'
p1347
I972
sS'405256'
p1348
I2102
sS'98145'
p1349
I1379
sS'400694'
p1350
I1246
sS'98147'
p1351
I1380
sS'326417'
p1352
I1161
sS'326418'
p1353
I1162
sS'312816'
p1354
I482
sS'85486'
p1355
I174
sS'704840'
p1356
I2821
sS'335790'
p1357
I1972
sS'57350'
p1358
I1505
sS'801348'
p1359
I2676
sS'805337'
p1360
I2969
sS'387823'
p1361
I858
sS'709822'
p1362
I3186
sS'801185'
p1363
I2674
sS'489847'
p1364
I2858
sS'724909'
p1365
I2416
sS'501614'
p1366
I3117
sS'191101'
p1367
I1692
sS'570518'
p1368
I3243
sS'741701'
p1369
I2626
sS'297790'
p1370
I1426
sS'583460'
p1371
I2880
sS'297797'
p1372
I1427
sS'346724'
p1373
I1884
sS'208346'
p1374
I926
sS'755334'
p1375
I2532
sS'13311'
p1376
I594
sS'138025'
p1377
I1960
sS'109669'
p1378
I1027
sS'765515'
p1379
I2418
sS'462898'
p1380
I140
sS'657066'
p1381
I3159
sS'569964'
p1382
I3234
sS'317461'
p1383
I683
sS'628671'
p1384
I3498
sS'293519'
p1385
I1849
sS'49991'
p1386
I421
sS'312109'
p1387
I479
sS'204329'
p1388
I1145
sS'337888'
p1389
I1212
sS'90147'
p1390
I808
sS'798882'
p1391
I2665
sS'613353'
p1392
I2337
sS'3273'
p1393
I1085
sS'637252'
p1394
I3000
sS'701583'
p1395
I3320
sS'743318'
p1396
I2379
sS'278363'
p1397
I1590
sS'170819'
p1398
I538
sS'380715'
p1399
I10
sS'480689'
p1400
I3140
sS'37438'
p1401
I831
sS'709624'
p1402
I3185
sS'37341'
p1403
I828
sS'278386'
p1404
I1592
sS'605278'
p1405
I2778
sS'498347'
p1406
I2944
sS'741212'
p1407
I3426
sS'317935'
p1408
I1290
sS'85130'
p1409
I171
sS'598979'
p1410
I3465
sS'33405'
p1411
I1987
sS'653303'
p1412
I3087
sS'415370'
p1413
I372
sS'314085'
p1414
I426
sS'26852'
p1415
I2000
sS'202887'
p1416
I1136
sS'344760'
p1417
I1403
sS'202883'
p1418
I1135
sS'395543'
p1419
I393
sS'776654'
p1420
I3299
sS'68780'
p1421
I1330
sS'112014'
p1422
I551
sS'779445'
p1423
I2635
sS'554641'
p1424
I3476
sS'421486'
p1425
I1611
sS'123465'
p1426
I1577
sS'725875'
p1427
I2647
sS'478770'
p1428
I3131
sS'796893'
p1429
I2844
sS'686650'
p1430
I2757
sS'68304'
p1431
I1064
sS'29737'
p1432
I51
sS'179397'
p1433
I1044
sS'78586'
p1434
I191
sS'746511'
p1435
I2800
sS'349852'
p1436
I121
sS'502991'
p1437
I3407
sS'410478'
p1438
I736
sS'195123'
p1439
I966
sS'437117'
p1440
I1354
sS'636258'
p1441
I2991
sS'766825'
p1442
I2434
sS'695257'
p1443
I2355
sS'691429'
p1444
I3438
sS'375809'
p1445
I322
sS'793789'
p1446
I2608
sS'83370'
p1447
I1263
sS'467891'
p1448
I1325
sS'264059'
p1449
I1219
sS'599433'
p1450
I3467
sS'309155'
p1451
I271
sS'533232'
p1452
I2280
sS'222230'
p1453
I1029
sS'106313'
p1454
I1915
sS'426469'
p1455
I1790
sS'297236'
p1456
I1417
sS'624937'
p1457
I2734
sS'666188'
p1458
I2160
sS'570291'
p1459
I3238
sS'540198'
p1460
I2494
sS'290544'
p1461
I1069
sS'169965'
p1462
I535
sS'720367'
p1463
I2294
sS'729826'
p1464
I3173
sS'690005'
p1465
I2327
sS'385721'
p1466
I702
sS'275917'
p1467
I1273
sS'440084'
p1468
I577
sS'410505'
p1469
I737
sS'440083'
p1470
I576
sS'385726'
p1471
I703
sS'283423'
p1472
I1563
sS'692635'
p1473
I3444
sS'11494'
p1474
I2020
sS'83777'
p1475
I1433
sS'12861'
p1476
I1228
sS'541488'
p1477
I2711
sS'724303'
p1478
I3341
sS'692145'
p1479
I3443
sS'375113'
p1480
I316
sS'296783'
p1481
I1413
sS'357909'
p1482
I776
sS'609820'
p1483
I2505
sS'565644'
p1484
I3587
sS'237930'
p1485
I310
sS'283194'
p1486
I622
sS'279381'
p1487
I500
sS'257628'
p1488
I2058
sS'279386'
p1489
I501
sS'775801'
p1490
I3294
sS'331490'
p1491
I77
sS'143386'
p1492
I1599
sS'213731'
p1493
I1990
sS'207744'
p1494
I918
sS'702413'
p1495
I3332
sS'381287'
p1496
I1338
sS'726694'
p1497
I2650
sS'151358'
p1498
I213
sS'658325'
p1499
I3164
sS'756000'
p1500
I2946
sS'417995'
p1501
I1231
sS'675796'
p1502
I2932
sS'242464'
p1503
I1671
sS'788651'
p1504
I2237
sS'788656'
p1505
I2238
sS'574600'
p1506
I2447
sS'703984'
p1507
I2817
sS'710919'
p1508
I3193
sS'466924'
p1509
I1320
sS'239574'
p1510
I1924
sS'391692'
p1511
I109
sS'696621'
p1512
I2368
sS'206984'
p1513
I913
sS'206988'
p1514
I914
sS'232149'
p1515
I1679
sS'209752'
p1516
I1490
sS'375592'
p1517
I320
sS'582809'
p1518
I2875
sS'713101'
p1519
I2539
sS'409519'
p1520
I732
sS'705639'
p1521
I2830
sS'72689'
p1522
I842
sS'44816'
p1523
I934
sS'100109'
p1524
I791
sS'354925'
p1525
I1440
sS'50538'
p1526
I424
sS'217099'
p1527
I179
sS'9813'
p1528
I1371
sS'694381'
p1529
I2902
sS'324923'
p1530
I1155
sS'61311'
p1531
I1000
sS'712980'
p1532
I2538
sS'504489'
p1533
I3412
sS'120349'
p1534
I879
sS'469764'
p1535
I332
sS'19480'
p1536
I490
sS'223344'
p1537
I1037
sS'672357'
p1538
I2717
sS'256984'
p1539
I527
sS'276226'
p1540
I1277
sS'702221'
p1541
I3324
sS'8315'
p1542
I1359
sS'435409'
p1543
I1347
sS'624095'
p1544
I2732
sS'314955'
p1545
I433
sS'666425'
p1546
I2163
sS'289722'
p1547
I1663
sS'370522'
p1548
I1111
sS'598377'
p1549
I3457
sS'396833'
p1550
I1310
sS'396834'
p1551
I1311
sS'493747'
p1552
I2201
sS'382131'
p1553
I59
sS'581201'
p1554
I3216
sS'646000'
p1555
I2816
sS'773756'
p1556
I2260
sS'11250'
p1557
I2015
sS'634244'
p1558
I3353
sS'397838'
p1559
I2035
sS'468780'
p1560
I330
sS'758743'
p1561
I3226
sS'276138'
p1562
I1276
sS'224008'
p1563
I1040
sS'279362'
p1564
I498
sS'35258'
p1565
I1458
sS'482026'
p1566
I3280
sS'276640'
p1567
I1717
sS'343999'
p1568
I1401
sS'104839'
p1569
I1906
sS'276822'
p1570
I1725
sS'766708'
p1571
I2433
sS'774730'
p1572
I2769
sS'505505'
p1573
I2388
sS'784165'
p1574
I3548
sS'281922'
p1575
I986
sS'82912'
p1576
I955
sS'608161'
p1577
I2500
sS'572589'
p1578
I2747
sS'724821'
p1579
I2414
sS'654884'
p1580
I3096
sS'560915'
p1581
I2693
sS'12076'
p1582
I2026
sS'128960'
p1583
I748
sS'657323'
p1584
I3161
sS'413529'
p1585
I599
sS'657327'
p1586
I3162
sS'249178'
p1587
I875
sS'287670'
p1588
I249
sS'300540'
p1589
I638
sS'131356'
p1590
I1170
sS'241341'
p1591
I1936
sS'572689'
p1592
I2750
sS'312798'
p1593
I481
sS'186886'
p1594
I1874
sS'631229'
p1595
I3254
sS'605549'
p1596
I2779
sS'240347'
p1597
I1928
sS'602597'
p1598
I3569
sS'21677'
p1599
I651
sS'78569'
p1600
I190
sS'524745'
p1601
I3514
sS'39944'
p1602
I361
sS'90936'
p1603
I811
sS'631611'
p1604
I3258
sS'772307'
p1605
I2247
sS'772309'
p1606
I2248
sS'286497'
p1607
I1197
sS'807204'
p1608
I2976
sS'762568'
p1609
I3368
sS'227631'
p1610
I1448
sS'414368'
p1611
I365
sS'393807'
p1612
I380
sS'195464'
p1613
I971
sS'762563'
p1614
I3367
sS'412900'
p1615
I1176
sS'741247'
p1616
I3429
sS'412902'
p1617
I1177
sS'64145'
p1618
I1820
sS'773542'
p1619
I2256
sS'448658'
p1620
I1107
sS'599942'
p1621
I3468
sS'810753'
p1622
I2556
sS'766677'
p1623
I2431
sS'454136'
p1624
I1738
sS'806653'
p1625
I2974
sS'810752'
p1626
I2555
sS'190354'
p1627
I2130
sS'371914'
p1628
I1518
sS'454139'
p1629
I1739
sS'390931'
p1630
I104
sS'219252'
p1631
I714
sS'741779'
p1632
I2375
sS'321831'
p1633
I517
sS'260742'
p1634
I768
sS'668594'
p1635
I2169
sS'782191'
p1636
I2148
sS'741774'
p1637
I2374
sS'134216'
p1638
I1125
sS'290973'
p1639
I1072
sS'669477'
p1640
I3046
sS'767712'
p1641
I2439
sS'605000'
p1642
I2774
sS'42186'
p1643
I561
sS'695136'
p1644
I2178
sS'810754'
p1645
I2557
sS'500755'
p1646
I3111
sS'189660'
p1647
I2124
sS'173431'
p1648
I1286
sS'720153'
p1649
I2293
sS'340694'
p1650
I14
sS'277777'
p1651
I1585
sS'128983'
p1652
I750
sS'558576'
p1653
I2188
sS'340691'
p1654
I13
sS'30016'
p1655
I54
sS'735673'
p1656
I3389
sS'578615'
p1657
I3201
sS'105314'
p1658
I1910
sS'566916'
p1659
I3590
sS'367316'
p1660
I1948
sS'295254'
p1661
I1861
sS'483201'
p1662
I3285
sS'760296'
p1663
I2576
sS'285281'
p1664
I1188
sS'426696'
p1665
I1792
sS'548150'
p1666
I3029
sS'418897'
p1667
I1240
sS'682374'
p1668
I2476
sS'455081'
p1669
I1741
sS'269784'
p1670
I39
sS'578610'
p1671
I3200
sS'612853'
p1672
I3314
sS'484374'
p1673
I3526
sS'203876'
p1674
I1143
sS'446807'
p1675
I1103
sS'677861'
p1676
I2936
sS'583161'
p1677
I2878
sS'333406'
p1678
I127
sS'772439'
p1679
I2254
sS'203053'
p1680
I1140
sS'113604'
p1681
I1631
sS'403467'
p1682
I2098
sS'783815'
p1683
I3547
sS'54533'
p1684
I710
sS'793021'
p1685
I2606
sS'796645'
p1686
I2840
sS'202891'
p1687
I1137
sS'791270'
p1688
I3063
sS'14951'
p1689
I1709
sS'168372'
p1690
I899
sS'574598'
p1691
I2446
sS'659942'
p1692
I3269
sS'487585'
p1693
I3123
sS'94721'
p1694
I961
sS'317038'
p1695
I1880
sS'208748'
p1696
I929
sS'322410'
p1697
I521
sS'445682'
p1698
I605
sS'9035'
p1699
I1363
sS'332685'
p1700
I86
sS'710052'
p1701
I3189
sS'213210'
p1702
I787
sS'474265'
p1703
I456
sS'252995'
p1704
I612
sS'282941'
p1705
I617
sS'306019'
p1706
I159
sS'282945'
p1707
I618
sS'367797'
p1708
I1950
sS'39614'
p1709
I357
sS'349823'
p1710
I120
sS'248217'
p1711
I871
sS'802159'
p1712
I3536
sS'709006'
p1713
I2698
sS'68661'
p1714
I1328
sS'333539'
p1715
I131
sS'724680'
p1716
I2408
sS'54220'
p1717
I1774
sS'724685'
p1718
I2409
sS'617342'
p1719
I3534
sS'347774'
p1720
I1890
sS'477079'
p1721
I203
sS'261218'
p1722
I769
sS'333536'
p1723
I130
sS'641948'
p1724
I2518
sS'653808'
p1725
I3090
sS'132214'
p1726
I1175
sS'804254'
p1727
I3523
sS'47476'
p1728
I821
sS'375296'
p1729
I317
sS'762654'
p1730
I3369
sS'748938'
p1731
I2889
sS'789462'
p1732
I2243
sS'364664'
p1733
I69
sS'14314'
p1734
I1705
sS'325629'
p1735
I1157
sS'637180'
p1736
I2999
sS'83743'
p1737
I1431
sS'613931'
p1738
I2343
sS'432991'
p1739
I1551
sS'368303'
p1740
I1954
sS'78688'
p1741
I192
sS'275905'
p1742
I1272
sS'709541'
p1743
I3018
sS'385719'
p1744
I701
sS'796877'
p1745
I2843
sS'709014'
p1746
I2699
sS'495323'
p1747
I2209
sS'788421'
p1748
I2235
sS'548519'
p1749
I3031
sS'385713'
p1750
I700
sS'395431'
p1751
I392
sS'538997'
p1752
I2490
sS'729778'
p1753
I3172
sS'482528'
p1754
I3282
sS'758679'
p1755
I3222
sS'541490'
p1756
I2712
sS'361942'
p1757
I2034
sS'491768'
p1758
I2589
sS'287795'
p1759
I1646
sS'61237'
p1760
I999
sS'523311'
p1761
I2195
sS'26642'
p1762
I1204
sS'39288'
p1763
I232
sS'500110'
p1764
I3108
sS'26649'
p1765
I1205
sS'207750'
p1766
I919
sS'226895'
p1767
I760
sS'750340'
p1768
I2899
sS'691190'
p1769
I2332
sS'207758'
p1770
I920
sS'151329'
p1771
I211
sS'206375'
p1772
I901
sS'3102'
p1773
I1084
sS'416104'
p1774
I377
sS'126625'
p1775
I1686
sS'471603'
p1776
I1836
sS'696553'
p1777
I2365
sS'332660'
p1778
I85
sS'487053'
p1779
I3119
sS'273865'
p1780
I7
sS'496212'
p1781
I2938
sS'352692'
p1782
I1480
sS'738983'
p1783
I2958
sS'488112'
p1784
I3126
sS'366838'
p1785
I1945
sS'504136'
p1786
I3410
sS'736829'
p1787
I3396
sS'716164'
p1788
I3143
sS'366527'
p1789
I1940
sS'288608'
p1790
I1654
sS'758586'
p1791
I3219
sS'365332'
p1792
I2105
sS'165072'
p1793
I981
sS'242491'
p1794
I1672
sS'403482'
p1795
I2099
sS'160556'
p1796
I2094
sS'370731'
p1797
I1112
sS'239963'
p1798
I1926
sS'311661'
p1799
I477
sS'612745'
p1800
I3312
sS'730082'
p1801
I3174
sS'437813'
p1802
I1356
sS'627824'
p1803
I3387
sS'582635'
p1804
I2874
sS'684110'
p1805
I2483
sS'239142'
p1806
I1921
sS'669348'
p1807
I3044
sS'296791'
p1808
I1414
sS'225702'
p1809
I1336
sS'318418'
p1810
I1291
sS'225700'
p1811
I1335
sS'526003'
p1812
I3518
sS'613112'
p1813
I3316
sS'245547'
p1814
I135
sS'59351'
p1815
I1507
sS'595500'
p1816
I3421
sS'730718'
p1817
I3180
sS'537325'
p1818
I2869
sS'694507'
p1819
I2904
sS'23977'
p1820
I1265
sS'144236'
p1821
I1603
sS'220393'
p1822
I720
sS'716231'
p1823
I3145
sS'659122'
p1824
I3265
sS'111433'
p1825
I548
sS'461166'
p1826
I285
sS'769106'
p1827
I2911
sS'434400'
p1828
I1557
sS'576585'
p1829
I2738
sS'666239'
p1830
I2161
sS'239366'
p1831
I1922
sS'532686'
p1832
I2277
sS'159230'
p1833
I2088
sS'493775'
p1834
I2202
sS'279594'
p1835
I506
sS'279595'
p1836
I507
sS'177380'
p1837
I938
sS'292231'
p1838
I1079
sS'396802'
p1839
I1309
sS'4142'
p1840
I1094
sS'636687'
p1841
I2996
sS'279352'
p1842
I497
sS'631578'
p1843
I3257
sS'241172'
p1844
I1933
sS'32442'
p1845
I1982
sS'54214'
p1846
I1773
sS'279606'
p1847
I508
sS'73128'
p1848
I844
sS'324065'
p1849
I1149
sS'527265'
p1850
I2656
sS'551533'
p1851
I2467
sS'75424'
p1852
I30
sS'631759'
p1853
I3260
sS'759207'
p1854
I2562
sS'457013'
p1855
I293
sS'185770'
p1856
I1865
sS'276696'
p1857
I1719
sS'11142'
p1858
I2014
sS'128974'
p1859
I749
sS'708946'
p1860
I2695
sS'702369'
p1861
I3329
sS'448791'
p1862
I1108
sS'271639'
p1863
I640
sS'632487'
p1864
I3261
sS'721417'
p1865
I3479
sS'124552'
p1866
I1581
sS'760907'
p1867
I2580
sS'241359'
p1868
I1937
sS'74882'
p1869
I29
sS'642638'
p1870
I3054
sS'428537'
p1871
I258
sS'428711'
p1872
I259
sS'38481'
p1873
I839
sS'240404'
p1874
I1929
sS'756028'
p1875
I2947
sS'727630'
p1876
I2654
sS'807624'
p1877
I2453
sS'703937'
p1878
I3340
sS'277984'
p1879
I1587
sS'776107'
p1880
I3296
sS'124183'
p1881
I1579
sS'576125'
p1882
I2736
sS'19871'
p1883
I492
sS'776076'
p1884
I3295
sS'546734'
p1885
I3022
sS'270749'
p1886
I44
sS'754569'
p1887
I2529
sS'703163'
p1888
I3335
sS'548839'
p1889
I3032
sS'573035'
p1890
I2752
sS'322977'
p1891
I522
sS'558786'
p1892
I2192
sS'154576'
p1893
I118
sS'26257'
p1894
I1199
sS'412913'
p1895
I1179
sS'412911'
p1896
I1178
sS'626566'
p1897
I3384
sS'309026'
p1898
I269
sS'790209'
p1899
I3437
sS'515614'
p1900
I3509
sS'735923'
p1901
I3391
sS'387510'
p1902
I850
sS'717868'
p1903
I3152
sS'190347'
p1904
I2129
sS'578898'
p1905
I3203
sS'643755'
p1906
I3058
sS'719298'
p1907
I2291
sS'501368'
p1908
I3115
sS'489701'
p1909
I2852
sS'739462'
p1910
I2960
sS'85022'
p1911
I170
sS'330469'
p1912
I74
sS'754789'
p1913
I2530
sS'735989'
p1914
I3392
sS'531311'
p1915
I2273
sS'524968'
p1916
I3517
sS'350698'
p1917
I1472
sS'379436'
p1918
I352
sS'523520'
p1919
I3511
sS'286539'
p1920
I1198
sS'49288'
p1921
I419
sS'196957'
p1922
I2070
sS'6073'
p1923
I1748
sS'209332'
p1924
I1483
sS'602073'
p1925
I3566
sS'659996'
p1926
I3273
sS'6078'
p1927
I1749
sS'54493'
p1928
I708
sS'54492'
p1929
I707
sS'665947'
p1930
I2159
sS'797312'
p1931
I2848
sS'204301'
p1932
I1144
sS'317332'
p1933
I679
sS'423210'
p1934
I1511
sS'462327'
p1935
I2064
sS'297842'
p1936
I1430
sS'574962'
p1937
I2735
sS'775487'
p1938
I3289
sS'377065'
p1939
I327
sS'647476'
p1940
I3009
sS'653325'
p1941
I3088
sS'297476'
p1942
I1421
sS'83404'
p1943
I1264
sS'274642'
p1944
I1382
sS'36435'
p1945
I1463
sS'674003'
p1946
I2718
sS'90094'
p1947
I807
sS'582961'
p1948
I2876
sS'3860'
p1949
I1092
sS'363955'
p1950
I68
sS'291921'
p1951
I1077
sS'563830'
p1952
I2984
sS'742237'
p1953
I2376
sS'714171'
p1954
I2545
sS'577562'
p1955
I2742
sS'556435'
p1956
I2224
sS'703506'
p1957
I3336
sS'388959'
p1958
I861
sS'45388'
p1959
I815
sS'114610'
p1960
I1636
sS'233147'
p1961
I251
sS'768596'
p1962
I2909
sS'211037'
p1963
I1500
sS'722234'
p1964
I3484
sS'598813'
p1965
I3464
sS'481226'
p1966
I3278
sS'475385'
p1967
I648
sS'709876'
p1968
I3187
sS'81349'
p1969
I943
sS'387770'
p1970
I856
sS'429111'
p1971
I1467
sS'543393'
p1972
I2391
sS'596525'
p1973
I3424
sS'158786'
p1974
I99
sS'582597'
p1975
I2873
sS'80988'
p1976
I939
sS'623144'
p1977
I2726
sS'797262'
p1978
I2846
sS'123326'
p1979
I1574
sS'157798'
p1980
I95
sS'175810'
p1981
I937
sS'447321'
p1982
I1104
sS'614221'
p1983
I2345
sS'785346'
p1984
I3552
sS'789475'
p1985
I2244
sS'522630'
p1986
I2602
sS'413358'
p1987
I597
sS'652648'
p1988
I3084
sS'556171'
p1989
I2222
sS'288541'
p1990
I1653
sS'465672'
p1991
I1316
sS'287356'
p1992
I241
sS'83756'
p1993
I1432
sS'261596'
p1994
I773
sS'613928'
p1995
I2342
sS'290527'
p1996
I1068
sS'491323'
p1997
I2586
sS'496442'
p1998
I2940
sS'798846'
p1999
I2664
sS'724418'
p2000
I3347
sS'67534'
p2001
I1061
sS'655751'
p2002
I3154
sS'433039'
p2003
I1552
sS'699603'
p2004
I2138
sS'779319'
p2005
I2632
sS'602919'
p2006
I3572
sS'375910'
p2007
I323
sS'209683'
p2008
I1487
sS'357923'
p2009
I777
sS'30028'
p2010
I56
sS'489674'
p2011
I2851
sS'375917'
p2012
I324
sS'432173'
p2013
I1547
sS'30026'
p2014
I55
sS'661846'
p2015
I3402
sS'626891'
p2016
I3385
sS'434208'
p2017
I1556
sS'586692'
p2018
I2595
sS'384479'
p2019
I692
sS'650896'
p2020
I3103
sS'316770'
p2021
I1877
sS'26659'
p2022
I1206
sS'47590'
p2023
I824
sS'429057'
p2024
I1465
sS'47596'
p2025
I825
sS'184107'
p2026
I470
sS'257481'
p2027
I2056
sS'748893'
p2028
I2888
sS'151334'
p2029
I212
sS'659977'
p2030
I3271
sS'382697'
p2031
I60
sS'558772'
p2032
I2191
sS'353596'
p2033
I1437
sS'739166'
p2034
I2959
sS'505893'
p2035
I2309
sS'645410'
p2036
I3042
sS'6415'
p2037
I1752
sS'491386'
p2038
I2587
sS'645417'
p2039
I3043
sS'746247'
p2040
I2795
sS'471616'
p2041
I1837
sS'520462'
p2042
I3308
sS'338809'
p2043
I1215
sS'696864'
p2044
I2370
sS'79434'
p2045
I195
sS'72317'
p2046
I841
sS'28911'
p2047
I47
sS'384506'
p2048
I694
sS'384505'
p2049
I693
sS'429100'
p2050
I1466
sS'283711'
p2051
I1566
sS'115893'
p2052
I1393
sS'111735'
p2053
I550
sS'570229'
p2054
I3237
sS'338531'
p2055
I1214
sS'556136'
p2056
I2221
sS'760224'
p2057
I2572
sS'553415'
p2058
I3471
sS'272276'
p2059
I1540
sS'257157'
p2060
I531
sS'767903'
p2061
I2441
sS'219527'
p2062
I715
sS'595269'
p2063
I3420
sS'302805'
p2064
I221
sS'259688'
p2065
I411
sS'500220'
p2066
I3110
sS'724895'
p2067
I2415
sS'110460'
p2068
I543
sS'279907'
p2069
I2077
sS'722223'
p2070
I3482
sS'282539'
p2071
I993
sS'722227'
p2072
I3483
sS'373168'
p2073
I1521
sS'331803'
p2074
I78
sS'282021'
p2075
I988
sS'350108'
p2076
I126
sS'520608'
p2077
I3309
sS'489795'
p2078
I2856
sS'707334'
p2079
I3070
sS'220016'
p2080
I719
sS'414511'
p2081
I367
sS'279584'
p2082
I505
sS'533150'
p2083
I2279
sS'266990'
p2084
I670
sS'88791'
p2085
I1257
sS'207946'
p2086
I921
sS'527458'
p2087
I2657
sS'483389'
p2088
I3287
sS'763809'
p2089
I3376
sS'189668'
p2090
I2125
sS'189669'
p2091
I2126
sS'343972'
p2092
I1400
sS'634260'
p2093
I3354
sS'579683'
p2094
I3204
sS'725546'
p2095
I2644
sS'807928'
p2096
I2454
sS'775544'
p2097
I3291
sS'189043'
p2098
I2120
sS'120789'
p2099
I881
sS'276372'
p2100
I1714
sS'741370'
p2101
I2618
sS'413507'
p2102
I598
sS'702374'
p2103
I3330
sS'401337'
p2104
I1248
sS'244393'
p2105
I690
sS'640564'
p2106
I2511
sS'680934'
p2107
I2215
sS'287494'
p2108
I245
sS'708950'
p2109
I2696
sS'678812'
p2110
I2143
sS'757822'
p2111
I2955
sS'70996'
p2112
I731
sS'410214'
p2113
I734
sS'642941'
p2114
I3055
sS'55981'
p2115
I398
sS'276755'
p2116
I1723
sS'276754'
p2117
I1722
sS'100306'
p2118
I795
sS'445204'
p2119
I459
sS'10875'
p2120
I2013
sS'277150'
p2121
I1728
sS'304676'
p2122
I231
sS'191752'
p2123
I1696
sS'604052'
p2124
I3573
sS'52407'
p2125
I339
sS'348043'
p2126
I1892
sS'396560'
p2127
I1299
sS'772328'
p2128
I2252
sS'679178'
p2129
I2210
sS'153793'
p2130
I115
sS'476659'
p2131
I201
sS'772326'
p2132
I2251
sS'314203'
p2133
I427
sS'314204'
p2134
I428
sS'257922'
p2135
I401
sS'623600'
p2136
I2729
sS'790009'
p2137
I3430
sS'396140'
p2138
I663
sS'153068'
p2139
I113
sS'741579'
p2140
I2622
sS'427858'
p2141
I1799
sS'292556'
p2142
I1080
sS'412963'
p2143
I1181
sS'328550'
p2144
I450
sS'412966'
p2145
I1182
sS'307502'
p2146
I168
sS'114140'
p2147
I1633
sS'3597'
p2148
I1089
sS'427455'
p2149
I1797
sS'634883'
p2150
I3359
sS'453850'
p2151
I1737
sS'53046'
p2152
I342
sS'766692'
p2153
I2432
sS'604671'
p2154
I2773
sS'98209'
p2155
I1381
sS'208316'
p2156
I925
sS'436301'
p2157
I1352
sS'301596'
p2158
I864
sS'489811'
p2159
I2857
sS'513204'
p2160
I3503
sS'477678'
p2161
I205
sS'323035'
p2162
I524
sS'210663'
p2163
I1498
sS'209300'
p2164
I1482
sS'472881'
p2165
I1841
sS'210668'
p2166
I1499
sS'302483'
p2167
I219
sS'759716'
p2168
I2568
sS'104124'
p2169
I1629
sS'302486'
p2170
I220
sS'227098'
p2171
I510
sS'6043'
p2172
I1747
sS'517374'
p2173
I2350
sS'246954'
p2174
I139
sS'140838'
p2175
I151
sS'726768'
p2176
I2651
sS'317309'
p2177
I678
sS'481678'
p2178
I3279
sS'678276'
p2179
I2704
sS'20123'
p2180
I494
sS'162619'
p2181
I863
sS'805476'
p2182
I2970
sS'699979'
p2183
I2140
sS'713584'
p2184
I2541
sS'427071'
p2185
I1795
sS'696001'
p2186
I2361
sS'124545'
p2187
I1580
sS'543738'
p2188
I2395
sS'678279'
p2189
I2705
sS'433201'
p2190
I1555
sS'98992'
p2191
I804
sS'191620'
p2192
I1695
sS'269256'
p2193
I37
sS'692996'
p2194
I3448
sS'210481'
p2195
I1496
sS'163694'
p2196
I977
sS'458887'
p2197
I276
sS'62973'
p2198
I1009
sS'105204'
p2199
I1909
sS'84187'
p2200
I169
sS'85161'
p2201
I172
sS'104129'
p2202
I1630
sS'101772'
p2203
I1615
sS'185970'
p2204
I1866
sS'321452'
p2205
I515
sS'786875'
p2206
I3559
sS'584759'
p2207
I2885
sS'363944'
p2208
I67
sS'352155'
p2209
I1478
sS'274692'
p2210
I1383
sS'758404'
p2211
I2269
sS'739707'
p2212
I2962
sS'689948'
p2213
I2326
sS'333513'
p2214
I129
sS'443657'
p2215
I570
sS'121477'
p2216
I885
sS'765944'
p2217
I2423
sS'556684'
p2218
I2225
sS'474248'
p2219
I455
sS'765943'
p2220
I2422
sS'112620'
p2221
I1015
sS'397839'
p2222
I2036
sS'789711'
p2223
I2686
sS'44157'
p2224
I932
sS'341306'
p2225
I18
sS'243072'
p2226
I688
sS'341304'
p2227
I17
sS'719268'
p2228
I2290
sS'68196'
p2229
I1063
sS'479037'
p2230
I3133
sS'311466'
p2231
I476
sS'115391'
p2232
I1639
sS'61002'
p2233
I997
sS'367834'
p2234
I1951
sS'585577'
p2235
I2592
sS'259795'
p2236
I412
sS'367514'
p2237
I1949
sS'220830'
p2238
I722
sS'208659'
p2239
I927
sS'763742'
p2240
I3375
sS'291044'
p2241
I1073
sS'325607'
p2242
I1156
sS'14376'
p2243
I1707
sS'275037'
p2244
I1387
sS'226707'
p2245
I756
sS'242259'
p2246
I1668
sS'725428'
p2247
I2642
sS'591173'
p2248
I2680
sS'478498'
p2249
I3130
sS'129033'
p2250
I751
sS'626427'
p2251
I3382
sS'717351'
p2252
I3150
sS'114852'
p2253
I1638
sS'794160'
p2254
I2610
sS'487859'
p2255
I3125
sS'233667'
p2256
I253
sS'296246'
p2257
I1410
sS'375436'
p2258
I319
sS'398200'
p2259
I2038
sS'660016'
p2260
I3274
sS'29989'
p2261
I53
sS'365681'
p2262
I1526
sS'365682'
p2263
I1527
sS'770635'
p2264
I2922
sS'474654'
p2265
I458
sS'24492'
p2266
I1266
sS'355604'
p2267
I1446
sS'137751'
p2268
I1959
sS'805725'
p2269
I2971
sS'437787'
p2270
I1355
sS'194711'
p2271
I474
sS'725683'
p2272
I2646
sS'471884'
p2273
I1838
sS'485777'
p2274
I3531
sS'169534'
p2275
I533
sS'226367'
p2276
I1337
sS'711486'
p2277
I3196
sS'229139'
p2278
I1453
sS'634553'
p2279
I3355
sS'416476'
p2280
I378
sS'296800'
p2281
I1415
sS'645407'
p2282
I3040
sS'112278'
p2283
I553
sS'645405'
p2284
I3039
sS'725335'
p2285
I2641
sS'301907'
p2286
I870
sS'540233'
p2287
I2495
sS'794469'
p2288
I2612
sS'375653'
p2289
I321
sS'699175'
p2290
I2134
sS'475632'
p2291
I334
sS'273318'
p2292
I1
sS'288504'
p2293
I1651
sS'461766'
p2294
I890
sS'299458'
p2295
I626
sS'647494'
p2296
I3011
sS'394583'
p2297
I386
sS'209785'
p2298
I1493
sS'767938'
p2299
I2442
sS'105939'
p2300
I1912
sS'740081'
p2301
I2967
sS'696984'
p2302
I2371
sS'351197'
p2303
I1473
sS'94164'
p2304
I960
sS'160771'
p2305
I2096
sS'785795'
p2306
I3553
sS'497788'
p2307
I2943
sS'23165'
p2308
I662
sS'301833'
p2309
I869
sS'730393'
p2310
I3178
sS'644049'
p2311
I3059
sS'446797'
p2312
I1102
sS'696561'
p2313
I2366
sS'31553'
p2314
I1980
sS'460362'
p2315
I283
sS'214008'
p2316
I1993
sS'28392'
p2317
I2012
sS'570415'
p2318
I3239
sS'74648'
p2319
I27
sS'130810'
p2320
I1166
sS'110476'
p2321
I544
sS'263842'
p2322
I1218
sS'704828'
p2323
I2820
sS'722967'
p2324
I3490
sS'69878'
p2325
I726
sS'410845'
p2326
I740
sS'341397'
p2327
I20
sS'598582'
p2328
I3463
sS'109178'
p2329
I1023
sS'450887'
p2330
I262
sS'287395'
p2331
I243
sS'434894'
p2332
I1562
sS'508144'
p2333
I2315
sS'335015'
p2334
I1970
sS'613669'
p2335
I2339
sS'420340'
p2336
I1606
sS'93193'
p2337
I958
sS'435603'
p2338
I1349
sS'333193'
p2339
I1057
sS'215449'
p2340
I1998
sS'19210'
p2341
I488
sS'452934'
p2342
I1733
sS'287135'
p2343
I591
sS'606021'
p2344
I2783
sS'287646'
p2345
I247
sS'796224'
p2346
I2837
sS'559227'
p2347
I2688
sS'413578'
p2348
I601
sS'287648'
p2349
I248
sS'613005'
p2350
I3315
sS'118431'
p2351
I1399
sS'695982'
p2352
I2359
sS'527646'
p2353
I2659
sS'482087'
p2354
I3281
sS'702292'
p2355
I3327
sS'56512'
p2356
I400
sS'365856'
p2357
I1532
sS'11514'
p2358
I2021
sS'544717'
p2359
I2400
sS'695988'
p2360
I2360
sS'109008'
p2361
I1020
sS'308519'
p2362
I264
sS'117483'
p2363
I1396
sS'112503'
p2364
I1010
sS'200789'
p2365
I2113
sS'783084'
p2366
I2153
sS'2759'
p2367
I1081
sS'69471'
p2368
I1117
sS'647612'
p2369
I3012
sS'100313'
p2370
I796
sS'645396'
p2371
I3038
sS'645395'
p2372
I3037
sS'654224'
p2373
I3094
sS'63966'
p2374
I1819
sS'276786'
p2375
I1724
sS'463981'
p2376
I145
sS'304060'
p2377
I226
sS'150458'
p2378
I209
sS'579781'
p2379
I3205
sS'769561'
p2380
I2915
sS'65751'
p2381
I1830
sS'173714'
p2382
I1288
sS'445271'
p2383
I461
sS'645990'
p2384
I2813
sS'551486'
p2385
I2466
sS'351612'
p2386
I1474
sS'702412'
p2387
I3331
sS'490024'
p2388
I2861
sS'467627'
p2389
I1323
sS'314726'
p2390
I432
sS'392184'
p2391
I110
sS'412971'
p2392
I1183
sS'322994'
p2393
I523
sS'396176'
p2394
I664
sS'434635'
p2395
I1561
sS'472047'
p2396
I1839
sS'27209'
p2397
I2003
sS'398503'
p2398
I2044
sS'781639'
p2399
I2146
sS'660207'
p2400
I3275
sS'669805'
p2401
I3048
sS'27204'
p2402
I2002
sS'602352'
p2403
I3568
sS'484496'
p2404
I3527
sS'730956'
p2405
I3183
sS'745693'
p2406
I2794
sS'510735'
p2407
I2184
sS'538475'
p2408
I2488
sS'722794'
p2409
I3489
sS'105321'
p2410
I1911
sS'199624'
p2411
I2110
sS'708025'
p2412
I3079
sS'678341'
p2413
I2706
sS'645243'
p2414
I3036
sS'676725'
p2415
I2933
sS'646531'
p2416
I3004
sS'154350'
p2417
I116
sS'766225'
p2418
I2426
sS'699855'
p2419
I2139
sS'581199'
p2420
I3215
sS'548925'
p2421
I3034
sS'513351'
p2422
I3504
sS'705443'
p2423
I2826
sS'54477'
p2424
I706
sS'694601'
p2425
I2905
sS'464980'
p2426
I147
sS'489936'
p2427
I2859
sS'466370'
p2428
I1317
sS'570422'
p2429
I3240
sS'780307'
p2430
I2638
sS'780308'
p2431
I2639
sS'623863'
p2432
I2730
sS'9223'
p2433
I1365
sS'158676'
p2434
I97
sS'157154'
p2435
I89
sS'583885'
p2436
I2881
sS'466570'
p2437
I1318
sS'743856'
p2438
I2382
sS'218253'
p2439
I184
sS'324359'
p2440
I1151
sS'802962'
p2441
I3539
sS'656134'
p2442
I3156
sS'390906'
p2443
I103
sS'390904'
p2444
I102
sS'809008'
p2445
I2456
sS'633642'
p2446
I3350
sS'70526'
p2447
I730
sS'722710'
p2448
I3487
sS'739939'
p2449
I2964
sS'601739'
p2450
I3563
sS'552910'
p2451
I3469
sS'421442'
p2452
I1610
sS'363208'
p2453
I64
sS'480622'
p2454
I3139
sS'54610'
p2455
I711
sS'123420'
p2456
I1575
sS'143856'
p2457
I1601
sS'689221'
p2458
I2324
sS'645651'
p2459
I2806
sS'650699'
p2460
I3102
sS'714156'
p2461
I2543
sS'714157'
p2462
I2544
sS'138362'
p2463
I1964
sS'768861'
p2464
I2910
sS'542884'
p2465
I2390
sS'691202'
p2466
I2333
sS'636748'
p2467
I2997
sS'440135'
p2468
I580
sS'799960'
p2469
I2669
sS'550834'
p2470
I2464
sS'724658'
p2471
I2407
sS'301300'
p2472
I1900
sS'591221'
p2473
I2681
sS'724321'
p2474
I3343
sS'133735'
p2475
I1122
sS'702683'
p2476
I3333
sS'245642'
p2477
I136
sS'18822'
p2478
I486
sS'278213'
p2479
I1589
sS'68185'
p2480
I1062
sS'83338'
p2481
I1262
sS'14344'
p2482
I1706
sS'797285'
p2483
I2847
sS'272076'
p2484
I1537
sS'380222'
p2485
I354
sS'609632'
p2486
I2504
sS'580830'
p2487
I3210
sS'3045'
p2488
I1083
sS'538264'
p2489
I2487
sS'705209'
p2490
I2823
sS'749619'
p2491
I2892
sS'95100'
p2492
I964
sS'597989'
p2493
I3455
sS'743325'
p2494
I2380
sS'237576'
p2495
I307
sS'501539'
p2496
I3116
sS'591342'
p2497
I2683
sS'264470'
p2498
I1222
sS'490942'
p2499
I2585
sS'83201'
p2500
I1260
sS'132552'
p2501
I1119
sS'413080'
p2502
I1186
sS'413084'
p2503
I1187
sS'263122'
p2504
I1217
sS'446014'
p2505
I1099
sS'451761'
p2506
I263
sS'364742'
p2507
I72
sS'280608'
p2508
I2082
sS'708363'
p2509
I3080
sS'803887'
p2510
I3546
sS'59464'
p2511
I1508
sS'27525'
p2512
I2005
sS'432440'
p2513
I1548
sS'62039'
p2514
I1003
sS'402407'
p2515
I1250
sS'462061'
p2516
I2060
sS'777134'
p2517
I3301
sS'574155'
p2518
I2170
sS'810771'
p2519
I2558
sS'765883'
p2520
I2421
sS'29048'
p2521
I48
sS'178577'
p2522
I1902
sS'711491'
p2523
I3197
sS'225480'
p2524
I1334
sS'332655'
p2525
I84
sS'252318'
p2526
I609
sS'574691'
p2527
I2450
sS'29513'
p2528
I50
sS'461518'
p2529
I888
sS'191577'
p2530
I1694
sS'262239'
p2531
I774
sS'318593'
p2532
I1292
sS'217101'
p2533
I180
sS'231698'
p2534
I1677
sS'461571'
p2535
I889
sS'759573'
p2536
I2565
sS'441468'
p2537
I583
sS'284295'
p2538
I1568
sS'272252'
p2539
I1539
sS'782569'
p2540
I2152
sS'703921'
p2541
I3339
sS'54189'
p2542
I1771
sS'757763'
p2543
I2953
sS'309541'
p2544
I272
sS'206549'
p2545
I910
sS'527508'
p2546
I2658
sS'494608'
p2547
I2206
sS'553436'
p2548
I3472
sS'759640'
p2549
I2567
sS'738398'
p2550
I2956
sS'12462'
p2551
I2028
sS'228347'
p2552
I1450
sS'91613'
p2553
I813
sS'712254'
p2554
I2537
sS'338060'
p2555
I1213
sS'341973'
p2556
I24
sS'753968'
p2557
I2526
sS'613126'
p2558
I3318
sS'214036'
p2559
I1994
sS'460421'
p2560
I284
sS'656070'
p2561
I3155
sS'410839'
p2562
I739
sS'309905'
p2563
I274
sS'93612'
p2564
I959
sS'24753'
p2565
I1268
sS'114106'
p2566
I1632
sS'226739'
p2567
I757
sS'728632'
p2568
I3166
sS'35292'
p2569
I1459
sS'784824'
p2570
I3551
sS'100526'
p2571
I798
sS'803378'
p2572
I3542
sS'594486'
p2573
I3415
sS'647427'
p2574
I3007
sS'650554'
p2575
I3101
sS'697827'
p2576
I2373
sS'209679'
p2577
I1486
sS'308692'
p2578
I266
sS'87851'
p2579
I1256
sS'403721'
p2580
I2100
sS'686929'
p2581
I2761
sS'301113'
p2582
I1894
sS'576981'
p2583
I2741
sS'215985'
p2584
I1999
sS'98681'
p2585
I1343
sS'92909'
p2586
I956
sS'209774'
p2587
I1492
sS'427027'
p2588
I1794
sS'249139'
p2589
I874
sS'705612'
p2590
I2829
sS'35500'
p2591
I1460
sS'574906'
p2592
I2452
sS'65291'
p2593
I1827
sS'624452'
p2594
I2733
sS'150196'
p2595
I207
sS'566132'
p2596
I3589
sS'708976'
p2597
I2697
sS'4068'
p2598
I1093
sS'633751'
p2599
I3352
sS'532754'
p2600
I2278
sS'303086'
p2601
I222
sS'594557'
p2602
I3416
sS'51229'
p2603
I425
sS'294968'
p2604
I1859
sS'120651'
p2605
I880
sS'411497'
p2606
I744
sS'399261'
p2607
I2048
sS'69285'
p2608
I1116
sS'510434'
p2609
I2183
sS'354039'
p2610
I1438
sS'288003'
p2611
I1647
sS'635319'
p2612
I3363
sS'449640'
p2613
I261
sS'424670'
p2614
I1516
sS'42414'
p2615
I562
sS'686918'
p2616
I2760
sS'130604'
p2617
I1164
sS'745584'
p2618
I2793
sS'645870'
p2619
I2811
sS'393844'
p2620
I381
sS'102510'
p2621
I1625
sS'466741'
p2622
I1319
sS'150425'
p2623
I208
sS'193647'
p2624
I1701
sS'293517'
p2625
I1848
sS'333077'
p2626
I1054
sS'114634'
p2627
I1637
sS'412949'
p2628
I1180
sS'97197'
p2629
I1375
sS'491630'
p2630
I2588
sS'82267'
p2631
I949
sS'686653'
p2632
I2758
sS'166199'
p2633
I893
sS'766219'
p2634
I2424
sS'661995'
p2635
I3405
sS'489344'
p2636
I2755
sS'121274'
p2637
I884
sS'435418'
p2638
I1348
sS'391018'
p2639
I108
sS'301100'
p2640
I1893
sS'809431'
p2641
I2458
sS'39875'
p2642
I359
sS'39877'
p2643
I360
sS'396186'
p2644
I665
sS'746559'
p2645
I2801
sS'554223'
p2646
I3474
sS'13348'
p2647
I595
sS'810473'
p2648
I2462
sS'730943'
p2649
I3182
sS'236508'
p2650
I305
sS'257614'
p2651
I2057
sS'484157'
p2652
I3525
sS'692816'
p2653
I3446
sS'349792'
p2654
I119
sS'309123'
p2655
I270
sS'306836'
p2656
I167
sS'586425'
p2657
I2593
sS'105043'
p2658
I1908
sS'791292'
p2659
I3064
sS'701578'
p2660
I3319
sS'386412'
p2661
I704
sS'256239'
p2662
I301
sS'141032'
p2663
I153
sS'387147'
p2664
I847
sS'54467'
p2665
I705
sS'571058'
p2666
I3248
sS'569966'
p2667
I3235
sS'644907'
p2668
I3060
sS'583416'
p2669
I2879
sS'407288'
p2670
I1642
sS'37449'
p2671
I832
sS'788767'
p2672
I2240
sS'7186'
p2673
I1761
sS'297525'
p2674
I1422
sS'396234'
p2675
I666
sS'415323'
p2676
I371
sS'775512'
p2677
I3290
sS'149187'
p2678
I1978
sS'568164'
p2679
I3595
sS'222610'
p2680
I1032
sS'149188'
p2681
I1979
sS'3426'
p2682
I1087
sS'128656'
p2683
I1436
sS'710794'
p2684
I3192
sS'800738'
p2685
I2673
sS'62956'
p2686
I1008
sS'54748'
p2687
I712
sS'235522'
p2688
I257
sS'227180'
p2689
I512
sS'609130'
p2690
I2502
sS'380788'
p2691
I11
sS'797055'
p2692
I2845
sS'110058'
p2693
I541
sS'27882'
p2694
I2010
sS'588843'
p2695
I2601
sS'419322'
p2696
I1241
sS'242159'
p2697
I1666
sS'223404'
p2698
I1038
sS'483533'
p2699
I3288
sS'149156'
p2700
I1977
sS'499226'
p2701
I3106
sS'790011'
p2702
I3431
sS'301741'
p2703
I868
sS'629530'
p2704
I2723
sS'98826'
p2705
I1346
sS'294291'
p2706
I1852
sS'440129'
p2707
I579
sS'363694'
p2708
I66
sS'758538'
p2709
I3218
sS'634847'
p2710
I3358
sS'195377'
p2711
I969
sS'564098'
p2712
I2986
sS'195372'
p2713
I968
sS'285713'
p2714
I1192
sS'112607'
p2715
I1014
sS'164454'
p2716
I980
sS'37594'
p2717
I833
sS'341367'
p2718
I19
sS'37596'
p2719
I834
sS'804727'
p2720
I2304
sS'172838'
p2721
I1280
sS'278027'
p2722
I1588
sS'709419'
p2723
I3015
sS'41121'
p2724
I557
sS'365759'
p2725
I1530
sS'172835'
p2726
I1279
sS'365753'
p2727
I1529
sS'699272'
p2728
I2136
sS'580977'
p2729
I3211
sS'324753'
p2730
I1154
sS'112997'
p2731
I1713
sS'112991'
p2732
I1712
sS'133097'
p2733
I1120
sS'590934'
p2734
I2678
sS'291062'
p2735
I1074
sS'523324'
p2736
I2196
sS'710021'
p2737
I3188
sS'37626'
p2738
I835
sS'40833'
p2739
I555
sS'760661'
p2740
I2579
sS'211771'
p2741
I1501
sS'572842'
p2742
I2751
sS'399535'
p2743
I2051
sS'399534'
p2744
I2050
sS'186141'
p2745
I1871
sS'18250'
p2746
I485
sS'464954'
p2747
I146
sS'572685'
p2748
I2749
sS'723181'
p2749
I3491
sS'742779'
p2750
I2378
sS'720981'
p2751
I2296
sS'133149'
p2752
I1121
sS'157630'
p2753
I94
sS'269983'
p2754
I40
sS'355118'
p2755
I1444
sS'724350'
p2756
I3345
sS'131942'
p2757
I1173
sS'47546'
p2758
I823
sS'316181'
p2759
I437
sS'778430'
p2760
I2629
sS'4327'
p2761
I1095
sS'238611'
p2762
I312
sS'447793'
p2763
I1105
sS'659217'
p2764
I3266
sS'417782'
p2765
I1230
sS'296468'
p2766
I1411
sS'447795'
p2767
I1106
sS'237961'
p2768
I311
sS'656294'
p2769
I3158
sS'294964'
p2770
I1857
sS'271682'
p2771
I642
sS'237905'
p2772
I309
sS'27537'
p2773
I2007
sS'129653'
p2774
I1163
sS'27535'
p2775
I2006
sS'749932'
p2776
I2894
sS'225125'
p2777
I1332
sS'79683'
p2778
I198
sS'106811'
p2779
I1919
sS'151676'
p2780
I216
sS'344790'
p2781
I1404
sS'156691'
p2782
I88
sS'83304'
p2783
I1261
sS'415675'
p2784
I374
sS'324688'
p2785
I1153
sS'788044'
p2786
I2232
sS'221501'
p2787
I724
sS'747981'
p2788
I2805
sS'160735'
p2789
I2095
sS'730280'
p2790
I3175
sS'352201'
p2791
I1479
sS'226838'
p2792
I758
sS'136397'
p2793
I1955
sS'792645'
p2794
I2604
sS'5777'
p2795
I1744
sS'132160'
p2796
I1174
sS'546996'
p2797
I3023
sS'380819'
p2798
I12
sS'145871'
p2799
I2107
sS'456114'
p2800
I289
sS'595238'
p2801
I3419
sS'127332'
p2802
I1689
sS'547337'
p2803
I3025
sS'416525'
p2804
I379
sS'208693'
p2805
I928
sS'47386'
p2806
I820
sS'325974'
p2807
I1158
sS'463671'
p2808
I144
sS'385486'
p2809
I699
sS'524890'
p2810
I3516
sS'61387'
p2811
I1001
sS'741538'
p2812
I2621
sS'131832'
p2813
I1172
sS'145893'
p2814
I2108
sS'73502'
p2815
I845
sS'783224'
p2816
I2155
sS'541933'
p2817
I2789
sS'109157'
p2818
I1022
sS'704874'
p2819
I2822
sS'109151'
p2820
I1021
sS'567095'
p2821
I3591
sS'401056'
p2822
I1247
sS'16745'
p2823
I1813
sS'315187'
p2824
I435
sS'199875'
p2825
I2111
sS'279646'
p2826
I509
sS'414785'
p2827
I370
sS'209676'
p2828
I1485
sS'286995'
p2829
I590
sS'582487'
p2830
I2872
sS'793429'
p2831
I2607
sS'554697'
p2832
I3477
sS'151455'
p2833
I215
sS'366874'
p2834
I1946
sS'234044'
p2835
I255
sS'225052'
p2836
I1331
sS'605112'
p2837
I2776
sS'492407'
p2838
I2590
sS'598578'
p2839
I3462
sS'150987'
p2840
I210
sS'713217'
p2841
I2540
sS'396758'
p2842
I1308
sS'286977'
p2843
I589
sS'286973'
p2844
I588
sS'313875'
p2845
I484
sS'691754'
p2846
I3440
sS'25652'
p2847
I1271
sS'544736'
p2848
I2401
sS'645238'
p2849
I3035
sS'376643'
p2850
I326
sS'173699'
p2851
I1287
sS'373680'
p2852
I1522
sS'82300'
p2853
I950
sS'545451'
p2854
I2402
sS'441638'
p2855
I585
sS'309800'
p2856
I273
sS'758340'
p2857
I2264
sS'758344'
p2858
I2265
sS'11534'
p2859
I2022
sS'294977'
p2860
I1860
sS'19457'
p2861
I489
sS'180530'
p2862
I1049
sS'625441'
p2863
I3381
sS'333140'
p2864
I1056
sS'240713'
p2865
I1932
sS'297422'
p2866
I1420
sS'547590'
p2867
I3026
sS'98780'
p2868
I1344
sS'186811'
p2869
I1873
sS'178717'
p2870
I1904
sS'3637'
p2871
I1090
sS'98789'
p2872
I1345
sS'222442'
p2873
I1031
sS'459902'
p2874
I280
sS'65732'
p2875
I1829
sS'189326'
p2876
I2122
sS'557705'
p2877
I2228
sS'784792'
p2878
I3550
sS'25015'
p2879
I1269
sS'11406'
p2880
I2016
sS'154536'
p2881
I117
sS'293502'
p2882
I1846
sS'293504'
p2883
I1847
sS'118110'
p2884
I1398
sS'581039'
p2885
I3212
sS'6104'
p2886
I1750
sS'476063'
p2887
I199
sS'576607'
p2888
I2739
sS'695899'
p2889
I2358
sS'581812'
p2890
I2870
sS'277234'
p2891
I1731
sS'277233'
p2892
I1730
sS'21798'
p2893
I652
sS'678728'
p2894
I2142
sS'732265'
p2895
I3575
sS'659981'
p2896
I3272
sS'277053'
p2897
I1727
sS'227358'
p2898
I513
sS'350187'
p2899
I1471
sS'64463'
p2900
I1821
sS'551604'
p2901
I2468
sS'722175'
p2902
I3481
sS'236514'
p2903
I306
sS'316909'
p2904
I1878
sS'281998'
p2905
I987
sS'116889'
p2906
I1394
sS'431666'
p2907
I1786
sS'773606'
p2908
I2258
sS'708009'
p2909
I3077
sS'259011'
p2910
I408
sS'715038'
p2911
I2547
sS'715039'
p2912
I2548
sS'270490'
p2913
I43
sS'810861'
p2914
I2560
sS'563567'
p2915
I2981
sS'306828'
p2916
I166
sS'52459'
p2917
I340
sS'536409'
p2918
I2866
sS'489739'
p2919
I2853
sS'487667'
p2920
I3124
sS'294601'
p2921
I1854
sS'131334'
p2922
I1169
sS'791465'
p2923
I3065
sS'271303'
p2924
I45
sS'85553'
p2925
I175
sS'513993'
p2926
I3505
sS'138493'
p2927
I1965
sS'628764'
p2928
I3499
sS'778618'
p2929
I2630
sS'445329'
p2930
I463
sS'649188'
p2931
I3097
sS'778746'
p2932
I2631
sS'658140'
p2933
I3163
sS'741652'
p2934
I2623
sS'501210'
p2935
I3114
sS'212850'
p2936
I782
sS'749244'
p2937
I2891
sS'455977'
p2938
I288
sS'212856'
p2939
I783
sS'98049'
p2940
I1377
sS'570688'
p2941
I3245
sS'727218'
p2942
I2653
sS'723752'
p2943
I3493
sS'102277'
p2944
I1621
sS'597760'
p2945
I3452
sS'531444'
p2946
I2274
sS'724625'
p2947
I2405
sS'390963'
p2948
I105
sS'476682'
p2949
I202
sS'390969'
p2950
I106
sS'799996'
p2951
I2670
sS'769933'
p2952
I2917
sS'754072'
p2953
I2527
sS'707806'
p2954
I3074
sS'569359'
p2955
I3230
sS'62723'
p2956
I1006
sS'659115'
p2957
I3264
sS'708022'
p2958
I3078
sS'134756'
p2959
I1127
sS'512623'
p2960
I3502
sS'597938'
p2961
I3454
sS'767777'
p2962
I2440
sS'551906'
p2963
I2470
sS'87338'
p2964
I1254
sS'578107'
p2965
I3199
sS'810739'
p2966
I2551
sS'436115'
p2967
I1350
sS'556424'
p2968
I2223
sS'487427'
p2969
I3122
sS'175457'
p2970
I936
sS'440112'
p2971
I578
sS'736836'
p2972
I3397
sS'692810'
p2973
I3445
sS'791795'
p2974
I3067
sS'456839'
p2975
I291
sS'204345'
p2976
I1146
sS'317376'
p2977
I680
sS'112969'
p2978
I1711
sS'203429'
p2979
I1142
sS'719231'
p2980
I2289
sS'647001'
p2981
I3005
sS'804751'
p2982
I2305
sS'365748'
p2983
I1528
sS'698663'
p2984
I2133
sS'605963'
p2985
I2781
sS'532516'
p2986
I2276
sS'365210'
p2987
I2104
sS'280751'
p2988
I2085
sS'699246'
p2989
I2135
sS'301643'
p2990
I865
sS'706539'
p2991
I2834
sS'211890'
p2992
I1503
sS'38074'
p2993
I836
sS'234850'
p2994
I256
sS'519705'
p2995
I3305
sS'636626'
p2996
I2994
sS'373904'
p2997
I1523
sS'570210'
p2998
I3236
sS'760654'
p2999
I2578
sS'333651'
p3000
I133
sS'381864'
p3001
I58
sS'398528'
p3002
I2045
sS'487393'
p3003
I3121
sS'282885'
p3004
I614
sS'598552'
p3005
I3460
sS'333492'
p3006
I128
sS'125231'
p3007
I1582
sS'68724'
p3008
I1329
sS'102059'
p3009
I1616
sS'232706'
p3010
I1682
sS'360423'
p3011
I2030
sS'111086'
p3012
I547
sS'361115'
p3013
I2032
sS'694417'
p3014
I2903
sS'694940'
p3015
I2174
sS'798645'
p3016
I2663
sS'271695'
p3017
I643
sS'596433'
p3018
I3423
sS'103050'
p3019
I1626
sS'782296'
p3020
I2150
sS'399610'
p3021
I2052
sS'766949'
p3022
I2436
sS'14720'
p3023
I1708
sS'675734'
p3024
I2931
sS'143129'
p3025
I1596
sS'691302'
p3026
I2334
sS'319992'
p3027
I1298
sS'524022'
p3028
I3512
sS'725584'
p3029
I2645
sS'434409'
p3030
I1558
sS'332632'
p3031
I83
sS'661939'
p3032
I3404
sS'126636'
p3033
I1687
sS'495746'
p3034
I2937
sS'479317'
p3035
I3136
sS'430150'
p3036
I1779
sS'475394'
p3037
I649
sS'402728'
p3038
I1252
sS'429166'
p3039
I1468
sS'108383'
p3040
I1019
sS'283591'
p3041
I1564
sS'238736'
p3042
I313
sS'479084'
p3043
I3134
sS'688423'
p3044
I2320
sS'267935'
p3045
I677
sS'471502'
p3046
I1835
sS'39306'
p3047
I234
sS'39307'
p3048
I235
sS'39304'
p3049
I233
sS'759622'
p3050
I2566
sS'771704'
p3051
I2245
sS'788142'
p3052
I2233
sS'355680'
p3053
I1447
sS'360191'
p3054
I2029
sS'142841'
p3055
I1595
sS'288012'
p3056
I1648
sS'233492'
p3057
I252
sS'315197'
p3058
I436
sS'494744'
p3059
I2207
sS'127924'
p3060
I1690
sS'341998'
p3061
I26
sS'394737'
p3062
I388
sS'259806'
p3063
I413
sS'777294'
p3064
I3303
sS'645989'
p3065
I2812
sS'580391'
p3066
I3208
sS'540322'
p3067
I2496
sS'5893'
p3068
I1745
sS'636246'
p3069
I2990
sS'276561'
p3070
I1716
sS'86016'
p3071
I177
sS'472230'
p3072
I1840
sS'280801'
p3073
I2086
sS'398361'
p3074
I2039
sS'299801'
p3075
I627
sS'674603'
p3076
I2720
sS'760313'
p3077
I2577
sS'413049'
p3078
I1185
sS'259972'
p3079
I415
sS'55419'
p3080
I395
sS'484049'
p3081
I3524
sS'206924'
p3082
I912
sS'110604'
p3083
I545
sS'25911'
p3084
I438
sS'492433'
p3085
I2591
sS'497581'
p3086
I2942
sS'541889'
p3087
I2788
sS'318626'
p3088
I1293
sS'584456'
p3089
I2882
sS'430107'
p3090
I1777
sS'304459'
p3091
I229
sS'198844'
p3092
I2109
sS'680204'
p3093
I2214
sS'301132'
p3094
I1895
sS'632671'
p3095
I3348
sS'257360'
p3096
I2053
sS'267421'
p3097
I673
sS'350035'
p3098
I124
sS'26356'
p3099
I1200
sS'287690'
p3100
I250
sS'431050'
p3101
I1781
sS'794826'
p3102
I2614
sS'482694'
p3103
I3283
sS'635264'
p3104
I3362
sS'536238'
p3105
I2865
sS'729670'
p3106
I3171
sS'323329'
p3107
I526
sS'289691'
p3108
I1661
sS'629997'
p3109
I3251
sS'629995'
p3110
I3250
sS'289695'
p3111
I1662
sS'733038'
p3112
I3578
sS'526527'
p3113
I3521
sS'294943'
p3114
I1856
sS'611863'
p3115
I2507
sS'574668'
p3116
I2449
sS'186803'
p3117
I1872
sS'306504'
p3118
I162
sS'109427'
p3119
I1026
sS'244130'
p3120
I689
sS'693235'
p3121
I3449
sS'741246'
p3122
I3428
sS'584513'
p3123
I2884
sS'501138'
p3124
I3113
sS'475839'
p3125
I336
sS'420351'
p3126
I1607
sS'475687'
p3127
I335
sS'796546'
p3128
I2839
sS'589025'
p3129
I2677
sS'584459'
p3130
I2883
sS'96684'
p3131
I1374
sS'485156'
p3132
I3529
sS'738824'
p3133
I2957
sS'101104'
p3134
I802
sS'488579'
p3135
I3127
sS'639266'
p3136
I2508
sS'550953'
p3137
I2465
sS'732293'
p3138
I3576
sS'161891'
p3139
I1545
sS'101109'
p3140
I803
sS'55560'
p3141
I396
sS'733102'
p3142
I3580
sS'723778'
p3143
I3494
sS'82202'
p3144
I948
sS'277206'
p3145
I1729
sS'670124'
p3146
I3049
sS'643212'
p3147
I3056
sS'257429'
p3148
I2055
sS'424108'
p3149
I1514
sS'572595'
p3150
I2748
sS'301315'
p3151
I1901
sS'722101'
p3152
I3480
sS'707448'
p3153
I3071
sS'440372'
p3154
I582
sS'758729'
p3155
I3224
sS'514772'
p3156
I3506
sS'297094'
p3157
I1416
sS'13364'
p3158
I596
sS'297720'
p3159
I1424
sS'297723'
p3160
I1425
sS'302442'
p3161
I218
sS'762494'
p3162
I3366
sS'691980'
p3163
I3442
sS'641201'
p3164
I2516
sS'794606'
p3165
I2613
sS'773675'
p3166
I2259
sS'588649'
p3167
I2600
sS'667726'
p3168
I2166
sS'362340'
p3169
I63
sS'348003'
p3170
I1891
sS'777315'
p3171
I3304
sS'769166'
p3172
I2914
sS'488615'
p3173
I3128
sS'9272'
p3174
I1368
sS'328060'
p3175
I446
sS'387942'
p3176
I860
sS'328065'
p3177
I447
sS'605087'
p3178
I2775
sS'707965'
p3179
I3076
sS'345424'
p3180
I1406
sS'781173'
p3181
I2145
sS'802936'
p3182
I3538
sS'753595'
p3183
I2524
sS'802243'
p3184
I3537
sS'774735'
p3185
I2770
sS'396251'
p3186
I667
sS'239377'
p3187
I1923
sS'489967'
p3188
I2860
sS'667208'
p3189
I2164
sS'600916'
p3190
I3561
sS'753065'
p3191
I2521
sS'301265'
p3192
I1898
sS'605157'
p3193
I2777
sS'301268'
p3194
I1899
sS'212846'
p3195
I781
sS'212845'
p3196
I780
sS'102260'
p3197
I1620
sS'719130'
p3198
I2286
sS'763438'
p3199
I3374
sS'490619'
p3200
I2583
sS'404600'
p3201
I2101
sS'669363'
p3202
I3045
sS'300014'
p3203
I629
sS'329649'
p3204
I453
sS'26002'
p3205
I439
sS'152807'
p3206
I111
sS'732078'
p3207
I3574
sS'796764'
p3208
I2842
sS'568347'
p3209
I3227
sS'275781'
p3210
I1392
sS'102283'
p3211
I1622
sS'33498'
p3212
I1988
sS'179090'
p3213
I1042
sS'397879'
p3214
I2037
sS'9092'
p3215
I1364
sS'236389'
p3216
I304
sS'246886'
p3217
I138
sS'302061'
p3218
I217
sS'36999'
p3219
I826
sS'186019'
p3220
I1869
sS'587282'
p3221
I2598
sS'186016'
p3222
I1868
sS'186010'
p3223
I1867
sS'645666'
p3224
I2808
sS'645665'
p3225
I2807
sS'143803'
p3226
I1600
sS'736518'
p3227
I3395
sS'736486'
p3228
I3394
sS'443618'
p3229
I569
sS'467179'
p3230
I1321
sS'713940'
p3231
I2542
sS'18879'
p3232
I487
sS'255692'
p3233
I298
sS'791811'
p3234
I3068
sS'202908'
p3235
I1138
sS'274961'
p3236
I1386
sS'622522'
p3237
I2724
sS'719222'
p3238
I2288
sS'274780'
p3239
I1384
sS'146033'
p3240
I1832
sS'138026'
p3241
I1961
sS'138027'
p3242
I1962
sS'432977'
p3243
I1550
sS'593293'
p3244
I2534
sS'203360'
p3245
I1141
sS'620568'
p3246
I2906
sS'711137'
p3247
I3194
sS'20436'
p3248
I496
sS'564052'
p3249
I2985
sS'159919'
p3250
I2089
sS'301654'
p3251
I866
sS'123585'
p3252
I1578
sS'426614'
p3253
I1791
sS'670919'
p3254
I3051
sS'766828'
p3255
I2435
sS'347765'
p3256
I1889
sS'607957'
p3257
I2787
sS'661766'
p3258
I3400
sS'333649'
p3259
I132
sS'12377'
p3260
I2027
sS'314491'
p3261
I430
sS'293869'
p3262
I1850
sS'597405'
p3263
I3451
sS'795237'
p3264
I2617
sS'236014'
p3265
I303
sS'70466'
p3266
I729
sS'704282'
p3267
I2818
sS'146250'
p3268
I1833
sS'509584'
p3269
I2181
sS'726309'
p3270
I2649
sS'487348'
p3271
I3120
sS'361102'
p3272
I2031
sS'702244'
p3273
I3326
sS'283107'
p3274
I621
sS'762805'
p3275
I3370
sS'208980'
p3276
I1481
sS'689008'
p3277
I2323
sS'779439'
p3278
I2634
sS'306207'
p3279
I161
sS'707742'
p3280
I3073
sS'399356'
p3281
I2049
sS'159987'
p3282
I2092
sS'766957'
p3283
I2438
sS'661859'
p3284
I3403
sS'28543'
p3285
I46
sS'766953'
p3286
I2437
sS'32468'
p3287
I1984
sS'598540'
p3288
I3458
sS'156679'
p3289
I87
sS'291822'
p3290
I1076
sS'248292'
p3291
I872
sS'775568'
p3292
I3292
sS'660563'
p3293
I3277
sS'434431'
p3294
I1560
sS'157278'
p3295
I91
sS'788432'
p3296
I2236
sS'64854'
p3297
I1824
sS'782554'
p3298
I2151
sS'242161'
p3299
I1667
sS'735403'
p3300
I3388
sS'774478'
p3301
I2765
sS'339472'
p3302
I1216
sS'169284'
p3303
I532
sS'414491'
p3304
I366
sS'724318'
p3305
I3342
sS'241889'
p3306
I766
sS'280251'
p3307
I2080
sS'197134'
p3308
I2071
sS'767974'
p3309
I2443
sS'137406'
p3310
I1958
sS'782083'
p3311
I2147
sS'760250'
p3312
I2574
sS'6955'
p3313
I1755
sS'414650'
p3314
I368
sS'414651'
p3315
I369
sS'541476'
p3316
I2710
sS'429379'
p3317
I1470
sS'108159'
p3318
I1018
sS'271731'
p3319
I644
sS'463495'
p3320
I142
sS'774545'
p3321
I2766
sS'774546'
p3322
I2767
sS'111677'
p3323
I549
sS'274256'
p3324
I9
sS'143204'
p3325
I1597
sS'229406'
p3326
I1454
sS'258811'
p3327
I403
sS'577564'
p3328
I2743
sS'341987'
p3329
I25
sS'750711'
p3330
I2901
sS'394723'
p3331
I387
sS'144528'
p3332
I1604
sS'593662'
p3333
I2536
sS'193232'
p3334
I1698
sS'193233'
p3335
I1699
sS'193231'
p3336
I1697
sS'166506'
p3337
I895
sS'284803'
p3338
I1571
sS'193238'
p3339
I1700
sS'282276'
p3340
I990
sS'282270'
p3341
I989
sS'54208'
p3342
I1772
sS'666240'
p3343
I2162
sS'468714'
p3344
I329
sS'337491'
p3345
I1209
sS'804493'
p3346
I2299
sS'319543'
p3347
I1296
sS'355007'
p3348
I1442
sS'355000'
p3349
I1441
sS'279461'
p3350
I503
sS'504335'
p3351
I3411
sS'505204'
p3352
I2385
sS'170436'
p3353
I536
sS'55602'
p3354
I397
sS'22691'
p3355
I660
sS'414277'
p3356
I364
sS'140175'
p3357
I148
sS'748529'
p3358
I2887
sS'286176'
p3359
I1195
sS'255908'
p3360
I300
sS'716581'
p3361
I3148
sS'82679'
p3362
I953
sS'755091'
p3363
I2531
sS'759745'
p3364
I2570
sS'448978'
p3365
I260
sS'716343'
p3366
I3147
sS'635783'
p3367
I2988
sS'279209'
p3368
I236
sS'703720'
p3369
I3337
sS'787497'
p3370
I2230
sS'344510'
p3371
I1402
sS'48882'
p3372
I418
sS'659299'
p3373
I3267
sS'409876'
p3374
I733
sS'206005'
p3375
I900
sS'277692'
p3376
I1584
sS'468044'
p3377
I1327
sS'186027'
p3378
I1870
sS'686758'
p3379
I2759
sS'271647'
p3380
I641
sS'393899'
p3381
I382
sS'398822'
p3382
I2047
sS'206376'
p3383
I902
sS'351652'
p3384
I1475
sS'22073'
p3385
I657
sS'702294'
p3386
I3328
sS'331895'
p3387
I81
sS'783593'
p3388
I2156
sS'733326'
p3389
I3581
sS'43402'
p3390
I930
sS'762236'
p3391
I3365
sS'98497'
p3392
I1340
sS'645991'
p3393
I2814
sS'256594'
p3394
I302
sS'645993'
p3395
I2815
sS'502578'
p3396
I3406
sS'65620'
p3397
I1828
sS'559631'
p3398
I2691
sS'764532'
p3399
I3378
sS'64861'
p3400
I1825
sS'766226'
p3401
I2427
sS'100771'
p3402
I800
sS'766224'
p3403
I2425
sS'378900'
p3404
I348
sS'106237'
p3405
I1914
sS'161844'
p3406
I1544
sS'21910'
p3407
I654
sS'106347'
p3408
I1916
sS'440360'
p3409
I581
sS'260445'
p3410
I767
sS'297715'
p3411
I1423
sS'572535'
p3412
I2746
sS'259038'
p3413
I409
sS'420900'
p3414
I1608
sS'183991'
p3415
I469
sS'4644'
p3416
I1097
sS'11779'
p3417
I2024
sS'462312'
p3418
I2062
sS'559254'
p3419
I2689
sS'19890'
p3420
I493
sS'515537'
p3421
I3508
sS'222139'
p3422
I1028
sS'489759'
p3423
I2854
sS'119877'
p3424
I877
sS'810846'
p3425
I2559
sS'442669'
p3426
I564
sS'298381'
p3427
I623
sS'9267'
p3428
I1367
sS'187988'
p3429
I2114
sS'427025'
p3430
I1793
sS'678417'
p3431
I2707
sS'805229'
p3432
I2968
sS'195435'
p3433
I970
sS'349213'
p3434
I1802
sS'645706'
p3435
I2810
sS'143976'
p3436
I1602
sS'671087'
p3437
I3052
sS'37423'
p3438
I830
sS'208235'
p3439
I924
sS'512425'
p3440
I3501
sS'427525'
p3441
I1798
sS'774751'
p3442
I2772
sS'484503'
p3443
I3528
sS'809040'
p3444
I2457
sS'558385'
p3445
I2186
sS'439872'
p3446
I574
sS'675099'
p3447
I2930
sS'442882'
p3448
I565
sS'766484'
p3449
I2429
sS'664271'
p3450
I2318
sS'467280'
p3451
I1322
sS'134193'
p3452
I1124
sS'509200'
p3453
I2180
sS'586509'
p3454
I2594
sS'349369'
p3455
I1805
sS'461804'
p3456
I891
sS'290875'
p3457
I1070
sS'290877'
p3458
I1071
sS'366375'
p3459
I1939
sS'538007'
p3460
I2486
sS'627416'
p3461
I3386
sS'745201'
p3462
I2792
sS'722758'
p3463
I3488
sS'546368'
p3464
I3019
sS'265235'
p3465
I1225
sS'689919'
p3466
I2325
sS'68389'
p3467
I1066
sS'739997'
p3468
I2965
sS'723360'
p3469
I3492
sS'810719'
p3470
I2550
sS'764881'
p3471
I3380
sS'9313'
p3472
I1369
sS'411165'
p3473
I741
sS'445296'
p3474
I462
sS'570575'
p3475
I3244
sS'719211'
p3476
I2287
sS'600842'
p3477
I3560
sS'804597'
p3478
I2300
sS'321685'
p3479
I516
sS'691758'
p3480
I3441
sS'8959'
p3481
I1362
sS'254512'
p3482
I295
sS'418001'
p3483
I1232
sS'141043'
p3484
I154
sS'365837'
p3485
I1531
sS'753430'
p3486
I2522
sS'544115'
p3487
I2396
sS'708426'
p3488
I3081
sS'285521'
p3489
I1189
sS'275510'
p3490
I1390
sS'695540'
p3491
I2356
sS'601764'
p3492
I3564
sS'647024'
p3493
I3006
sS'29310'
p3494
I49
sS'188620'
p3495
I2117
sS'329326'
p3496
I452
sS'301667'
p3497
I867
sS'202486'
p3498
I1134
sS'219765'
p3499
I717
sS'202485'
p3500
I1133
sS'614052'
p3501
I2344
sS'157602'
p3502
I93
sS'591304'
p3503
I2682
sS'275995'
p3504
I1275
sS'552080'
p3505
I2471
sS'779398'
p3506
I2633
sS'664091'
p3507
I2317
sS'140184'
p3508
I149
sS'788905'
p3509
I2241
sS'654391'
p3510
I3095
sS'37320'
p3511
I827
sS'640309'
p3512
I2510
sS'76387'
p3513
I35
sS'799947'
p3514
I2668
sS'415731'
p3515
I376
sS'8775'
p3516
I1361
sS'280480'
p3517
I2081
sS'428179'
p3518
I1800
sS'398445'
p3519
I2041
sS'288793'
p3520
I1655
sS'364706'
p3521
I70
sS'11422'
p3522
I2017
sS'474412'
p3523
I457
sS'292733'
p3524
I1844
sS'638643'
p3525
I3002
sS'506127'
p3526
I2311
sS'27565'
p3527
I2008
sS'368216'
p3528
I1953
sS'187756'
p3529
I1875
sS'776649'
p3530
I3298
sS'709468'
p3531
I3017
sS'411181'
p3532
I742
sS'463391'
p3533
I141
sS'434421'
p3534
I1559
sS'775574'
p3535
I3293
sS'749780'
p3536
I2893
sS'792676'
p3537
I2605
sS'701636'
p3538
I3321
sS'67353'
p3539
I1060
sS'569662'
p3540
I3231
sS'473810'
p3541
I1843
sS'79655'
p3542
I196
sS'79656'
p3543
I197
sS'707489'
p3544
I3072
sS'384568'
p3545
I695
sS'231419'
p3546
I1676
sS'496280'
p3547
I2939
sS'133999'
p3548
I1123
sS'553479'
p3549
I3473
sS'381519'
p3550
I57
sS'716186'
p3551
I3144
sS'760246'
p3552
I2573
sS'662330'
p3553
I3129
sS'650978'
p3554
I3104
sS'463643'
p3555
I143
sS'730343'
p3556
I3176
sS'696801'
p3557
I2369
sS'730349'
p3558
I3177
sS'273906'
p3559
I8
sS'788162'
p3560
I2234
sS'661828'
p3561
I3401
sS'27822'
p3562
I2009
sS'591374'
p3563
I2684
sS'288071'
p3564
I1649
sS'658697'
p3565
I3262
sS'724383'
p3566
I3346
sS'239860'
p3567
I1925
sS'216255'
p3568
I178
sS'258804'
p3569
I402
sS'594689'
p3570
I3417
sS'189209'
p3571
I2121
sS'228941'
p3572
I1452
sS'228120'
p3573
I1449
sS'593652'
p3574
I2535
sS'214673'
p3575
I1995
sS'572055'
p3576
I2745
sS'103097'
p3577
I1627
sS'284816'
p3578
I1572
sS'87566'
p3579
I1255
sS'779983'
p3580
I2637
sS'703817'
p3581
I3338
sS'634943'
p3582
I3360
sS'207474'
p3583
I916
sS'206479'
p3584
I907
sS'106610'
p3585
I1917
sS'206473'
p3586
I906
sS'299826'
p3587
I628
sS'527920'
p3588
I2660
sS'267398'
p3589
I672
sS'606998'
p3590
I2786
sS'7469'
p3591
I1766
sS'598982'
p3592
I3466
sS'691108'
p3593
I2331
sS'282644'
p3594
I994
sS'298804'
p3595
I625
sS'531928'
p3596
I2275
s.